
ISU.elf:     file format elf32-avr

Sections:
Idx Name          Size      VMA       LMA       File off  Algn
  0 .data         000000c6  00800100  00001640  000016d4  2**0
                  CONTENTS, ALLOC, LOAD, DATA
  1 .text         00001640  00000000  00000000  00000094  2**1
                  CONTENTS, ALLOC, LOAD, READONLY, CODE
  2 .bss          00000078  008001c6  008001c6  0000179a  2**0
                  ALLOC
  3 .comment      00000030  00000000  00000000  0000179a  2**0
                  CONTENTS, READONLY
  4 .note.gnu.avr.deviceinfo 0000003c  00000000  00000000  000017cc  2**2
                  CONTENTS, READONLY
  5 .debug_aranges 000002d0  00000000  00000000  00001808  2**3
                  CONTENTS, READONLY, DEBUGGING
  6 .debug_info   00002723  00000000  00000000  00001ad8  2**0
                  CONTENTS, READONLY, DEBUGGING
  7 .debug_abbrev 00001058  00000000  00000000  000041fb  2**0
                  CONTENTS, READONLY, DEBUGGING
  8 .debug_line   00001595  00000000  00000000  00005253  2**0
                  CONTENTS, READONLY, DEBUGGING
  9 .debug_frame  00000528  00000000  00000000  000067e8  2**2
                  CONTENTS, READONLY, DEBUGGING
 10 .debug_str    00000cf8  00000000  00000000  00006d10  2**0
                  CONTENTS, READONLY, DEBUGGING
 11 .debug_loc    00001215  00000000  00000000  00007a08  2**0
                  CONTENTS, READONLY, DEBUGGING
 12 .debug_ranges 00000208  00000000  00000000  00008c1d  2**0
                  CONTENTS, READONLY, DEBUGGING

Disassembly of section .text:

00000000 <__vectors>:
       0:	90 c0       	rjmp	.+288    	; 0x122 <__ctors_end>
       2:	00 00       	nop
       4:	ac c0       	rjmp	.+344    	; 0x15e <__bad_interrupt>
       6:	00 00       	nop
       8:	aa c0       	rjmp	.+340    	; 0x15e <__bad_interrupt>
       a:	00 00       	nop
       c:	a8 c0       	rjmp	.+336    	; 0x15e <__bad_interrupt>
       e:	00 00       	nop
      10:	a6 c0       	rjmp	.+332    	; 0x15e <__bad_interrupt>
      12:	00 00       	nop
      14:	a4 c0       	rjmp	.+328    	; 0x15e <__bad_interrupt>
      16:	00 00       	nop
      18:	a2 c0       	rjmp	.+324    	; 0x15e <__bad_interrupt>
      1a:	00 00       	nop
      1c:	a0 c0       	rjmp	.+320    	; 0x15e <__bad_interrupt>
      1e:	00 00       	nop
      20:	9e c0       	rjmp	.+316    	; 0x15e <__bad_interrupt>
      22:	00 00       	nop
      24:	9c c0       	rjmp	.+312    	; 0x15e <__bad_interrupt>
      26:	00 00       	nop
      28:	9a c0       	rjmp	.+308    	; 0x15e <__bad_interrupt>
      2a:	00 00       	nop
      2c:	98 c0       	rjmp	.+304    	; 0x15e <__bad_interrupt>
      2e:	00 00       	nop
      30:	96 c0       	rjmp	.+300    	; 0x15e <__bad_interrupt>
      32:	00 00       	nop
      34:	94 c0       	rjmp	.+296    	; 0x15e <__bad_interrupt>
      36:	00 00       	nop
      38:	92 c0       	rjmp	.+292    	; 0x15e <__bad_interrupt>
      3a:	00 00       	nop
      3c:	90 c0       	rjmp	.+288    	; 0x15e <__bad_interrupt>
      3e:	00 00       	nop
      40:	8e c0       	rjmp	.+284    	; 0x15e <__bad_interrupt>
      42:	00 00       	nop
      44:	8c c0       	rjmp	.+280    	; 0x15e <__bad_interrupt>
      46:	00 00       	nop
      48:	32 c7       	rjmp	.+3684   	; 0xeae <__vector_18>
      4a:	00 00       	nop
      4c:	88 c0       	rjmp	.+272    	; 0x15e <__bad_interrupt>
      4e:	00 00       	nop
      50:	86 c0       	rjmp	.+268    	; 0x15e <__bad_interrupt>
      52:	00 00       	nop
      54:	84 c0       	rjmp	.+264    	; 0x15e <__bad_interrupt>
      56:	00 00       	nop
      58:	82 c0       	rjmp	.+260    	; 0x15e <__bad_interrupt>
      5a:	00 00       	nop
      5c:	80 c0       	rjmp	.+256    	; 0x15e <__bad_interrupt>
      5e:	00 00       	nop
      60:	7e c0       	rjmp	.+252    	; 0x15e <__bad_interrupt>
      62:	00 00       	nop
      64:	7c c0       	rjmp	.+248    	; 0x15e <__bad_interrupt>
      66:	00 00       	nop
      68:	7a c0       	rjmp	.+244    	; 0x15e <__bad_interrupt>
      6a:	00 00       	nop
      6c:	78 c0       	rjmp	.+240    	; 0x15e <__bad_interrupt>
      6e:	00 00       	nop
      70:	76 c0       	rjmp	.+236    	; 0x15e <__bad_interrupt>
      72:	00 00       	nop
      74:	74 c0       	rjmp	.+232    	; 0x15e <__bad_interrupt>
      76:	00 00       	nop
      78:	72 c0       	rjmp	.+228    	; 0x15e <__bad_interrupt>
      7a:	00 00       	nop
      7c:	70 c0       	rjmp	.+224    	; 0x15e <__bad_interrupt>
      7e:	00 00       	nop
      80:	6e c0       	rjmp	.+220    	; 0x15e <__bad_interrupt>
      82:	00 00       	nop
      84:	6c c0       	rjmp	.+216    	; 0x15e <__bad_interrupt>
      86:	00 00       	nop
      88:	6a c0       	rjmp	.+212    	; 0x15e <__bad_interrupt>
      8a:	00 00       	nop
      8c:	70 05       	cpc	r23, r0
      8e:	9a 05       	cpc	r25, r10
      90:	7c 05       	cpc	r23, r12
      92:	eb 05       	cpc	r30, r11
      94:	15 05       	cpc	r17, r5
      96:	89 05       	cpc	r24, r9
      98:	44 06       	cpc	r4, r20
      9a:	24 05       	cpc	r18, r4
      9c:	3c 06       	cpc	r3, r28
      9e:	2d 05       	cpc	r18, r13
      a0:	07 63       	ori	r16, 0x37	; 55
      a2:	42 36       	cpi	r20, 0x62	; 98
      a4:	b7 9b       	sbis	0x16, 7	; 22
      a6:	d8 a7       	std	Y+40, r29	; 0x28
      a8:	1a 39       	cpi	r17, 0x9A	; 154
      aa:	68 56       	subi	r22, 0x68	; 104
      ac:	18 ae       	std	Y+56, r1	; 0x38
      ae:	ba ab       	std	Y+50, r27	; 0x32
      b0:	55 8c       	ldd	r5, Z+29	; 0x1d
      b2:	1d 3c       	cpi	r17, 0xCD	; 205
      b4:	b7 cc       	rjmp	.-1682   	; 0xfffffa24 <__eeprom_end+0xff7efa24>
      b6:	57 63       	ori	r21, 0x37	; 55
      b8:	bd 6d       	ori	r27, 0xDD	; 221
      ba:	ed fd       	.word	0xfded	; ????
      bc:	75 3e       	cpi	r23, 0xE5	; 229
      be:	f6 17       	cp	r31, r22
      c0:	72 31       	cpi	r23, 0x12	; 18
      c2:	bf 00       	.word	0x00bf	; ????
      c4:	00 00       	nop
      c6:	80 3f       	cpi	r24, 0xF0	; 240
      c8:	08 00       	.word	0x0008	; ????
      ca:	00 00       	nop
      cc:	be 92       	st	-X, r11
      ce:	24 49       	sbci	r18, 0x94	; 148
      d0:	12 3e       	cpi	r17, 0xE2	; 226
      d2:	ab aa       	std	Y+51, r10	; 0x33
      d4:	aa 2a       	or	r10, r26
      d6:	be cd       	rjmp	.-1156   	; 0xfffffc54 <__eeprom_end+0xff7efc54>
      d8:	cc cc       	rjmp	.-1640   	; 0xfffffa72 <__eeprom_end+0xff7efa72>
      da:	4c 3e       	cpi	r20, 0xEC	; 236
      dc:	00 00       	nop
      de:	00 80       	ld	r0, Z
      e0:	be ab       	std	Y+54, r27	; 0x36
      e2:	aa aa       	std	Y+50, r10	; 0x32
      e4:	aa 3e       	cpi	r26, 0xEA	; 234
      e6:	00 00       	nop
      e8:	00 00       	nop
      ea:	bf 00       	.word	0x00bf	; ????
      ec:	00 00       	nop
      ee:	80 3f       	cpi	r24, 0xF0	; 240
      f0:	00 00       	nop
      f2:	00 00       	nop
      f4:	00 08       	sbc	r0, r0
      f6:	41 78       	andi	r20, 0x81	; 129
      f8:	d3 bb       	out	0x13, r29	; 19
      fa:	43 87       	std	Z+11, r20	; 0x0b
      fc:	d1 13       	cpse	r29, r17
      fe:	3d 19       	sub	r19, r13
     100:	0e 3c       	cpi	r16, 0xCE	; 206
     102:	c3 bd       	out	0x23, r28	; 35
     104:	42 82       	std	Z+2, r4	; 0x02
     106:	ad 2b       	or	r26, r29
     108:	3e 68       	ori	r19, 0x8E	; 142
     10a:	ec 82       	std	Y+4, r14	; 0x04
     10c:	76 be       	out	0x36, r7	; 54
     10e:	d9 8f       	std	Y+25, r29	; 0x19
     110:	e1 a9       	ldd	r30, Z+49	; 0x31
     112:	3e 4c       	sbci	r19, 0xCE	; 206
     114:	80 ef       	ldi	r24, 0xF0	; 240
     116:	ff be       	out	0x3f, r15	; 63
     118:	01 c4       	rjmp	.+2050   	; 0x91c <_Z11insert_datav+0x436>
     11a:	ff 7f       	andi	r31, 0xFF	; 255
     11c:	3f 00       	.word	0x003f	; ????
     11e:	00 00       	nop
	...

00000122 <__ctors_end>:
     122:	11 24       	eor	r1, r1
     124:	1f be       	out	0x3f, r1	; 63
     126:	cf ef       	ldi	r28, 0xFF	; 255
     128:	d0 e1       	ldi	r29, 0x10	; 16
     12a:	de bf       	out	0x3e, r29	; 62
     12c:	cd bf       	out	0x3d, r28	; 61

0000012e <__do_copy_data>:
     12e:	11 e0       	ldi	r17, 0x01	; 1
     130:	a0 e0       	ldi	r26, 0x00	; 0
     132:	b1 e0       	ldi	r27, 0x01	; 1
     134:	e0 e4       	ldi	r30, 0x40	; 64
     136:	f6 e1       	ldi	r31, 0x16	; 22
     138:	00 e0       	ldi	r16, 0x00	; 0
     13a:	0b bf       	out	0x3b, r16	; 59
     13c:	02 c0       	rjmp	.+4      	; 0x142 <__do_copy_data+0x14>
     13e:	07 90       	elpm	r0, Z+
     140:	0d 92       	st	X+, r0
     142:	a6 3c       	cpi	r26, 0xC6	; 198
     144:	b1 07       	cpc	r27, r17
     146:	d9 f7       	brne	.-10     	; 0x13e <__do_copy_data+0x10>

00000148 <__do_clear_bss>:
     148:	22 e0       	ldi	r18, 0x02	; 2
     14a:	a6 ec       	ldi	r26, 0xC6	; 198
     14c:	b1 e0       	ldi	r27, 0x01	; 1
     14e:	01 c0       	rjmp	.+2      	; 0x152 <.do_clear_bss_start>

00000150 <.do_clear_bss_loop>:
     150:	1d 92       	st	X+, r1

00000152 <.do_clear_bss_start>:
     152:	ae 33       	cpi	r26, 0x3E	; 62
     154:	b2 07       	cpc	r27, r18
     156:	e1 f7       	brne	.-8      	; 0x150 <.do_clear_bss_loop>
     158:	53 d1       	rcall	.+678    	; 0x400 <main>
     15a:	0c 94 1e 0b 	jmp	0x163c	; 0x163c <_exit>

0000015e <__bad_interrupt>:
     15e:	50 cf       	rjmp	.-352    	; 0x0 <__vectors>

00000160 <_Z8adc_initv>:

void adc_init(void)
{
	// Р»РµРІРѕРµ СЃРјРµС‰РµРЅРёРµ, 8 Р±РёС‚РЅС‹Р№ РђР¦Рџ
	// СѓСЃС‚Р°РЅР°РІР»РёРІР°РµРј РёСЃС‚РѕС‡РЅРёРє РђР¦Рџ РїРёРЅ СЃ РЅРѕРјРµСЂРѕРј PIN
	ADMUX |= (0<<REFS1) | (1<<REFS0) |   (1<<ADLAR) |  (0<<MUX0); 
     160:	87 b1       	in	r24, 0x07	; 7
     162:	80 66       	ori	r24, 0x60	; 96
     164:	87 b9       	out	0x07, r24	; 7
	ADCSRA |= (1<<ADEN) | // СЂР°Р·СЂРµС€РµРЅРёРµ СЂР°Р±РѕС‚С‹ РђР¦Рџ
	(1<<ADSC) | // Р·Р°РїСѓСЃРє РђР¦Рџ
	(1<<ADFR) | // Р°РІС‚РѕРјР°С‚РёС‡РµСЃРєРёР№ СЂРµР¶РёРј РђР¦Рџ
	(1<<ADPS2) | (1<<ADPS1) | (1<<ADPS0);
     166:	86 b1       	in	r24, 0x06	; 6
     168:	87 6e       	ori	r24, 0xE7	; 231
     16a:	86 b9       	out	0x06, r24	; 6
     16c:	08 95       	ret

0000016e <_Z8read_ADCh>:
//С‡С‚РµРЅРёРµ Р·РЅР°С‡РµРЅРёСЏ СЃ Р°С†Рї
uint8_t read_ADC(uint8_t pin)
{
	//select pin
 	uint8_t mask = 0b11111000;
 	ADMUX &= mask;
     16e:	97 b1       	in	r25, 0x07	; 7
     170:	98 7f       	andi	r25, 0xF8	; 248
     172:	97 b9       	out	0x07, r25	; 7
 	ADMUX |= pin;
     174:	97 b1       	in	r25, 0x07	; 7
     176:	89 2b       	or	r24, r25
     178:	87 b9       	out	0x07, r24	; 7
	return (uint8_t)ADCH; 
     17a:	85 b1       	in	r24, 0x05	; 5
     17c:	08 95       	ret

0000017e <_Z8poll_adcv>:
	// РїСЂРµРґРґРµР»РёС‚РµР»СЊ РђР¦Рџ 128
}

//РѕРїСЂРѕСЃ 0 Рё 1 Р°С†Рї
uint16_t poll_adc(void)
{
     17e:	cf 93       	push	r28
	uint16_t result = 0x0000;
	result |= (read_ADC(FAN_PWM_PIN) << 8) | read_ADC(HEATER_PWM_PIN);
     180:	81 e0       	ldi	r24, 0x01	; 1
     182:	f5 df       	rcall	.-22     	; 0x16e <_Z8read_ADCh>
     184:	c8 2f       	mov	r28, r24
     186:	80 e0       	ldi	r24, 0x00	; 0
     188:	f2 df       	rcall	.-28     	; 0x16e <_Z8read_ADCh>
	return result;
     18a:	2c 2f       	mov	r18, r28
     18c:	30 e0       	ldi	r19, 0x00	; 0
     18e:	32 2f       	mov	r19, r18
     190:	22 27       	eor	r18, r18
}
     192:	a9 01       	movw	r20, r18
     194:	48 2b       	or	r20, r24
     196:	ca 01       	movw	r24, r20
     198:	cf 91       	pop	r28
     19a:	08 95       	ret

0000019c <_Z14read_btn_valueh>:
	return prev;
 }
//С‚РµРєСѓС‰РµРµ СЃРѕСЃС‚РѕСЏРЅРёРµ
 uint8_t read_btn_value(uint8_t index)
 {
	if(BTN_INPUT_PORT & (1<<index)) return 0xFF;
     19c:	20 b3       	in	r18, 0x10	; 16
     19e:	30 e0       	ldi	r19, 0x00	; 0
     1a0:	02 c0       	rjmp	.+4      	; 0x1a6 <_Z14read_btn_valueh+0xa>
     1a2:	35 95       	asr	r19
     1a4:	27 95       	ror	r18
     1a6:	8a 95       	dec	r24
     1a8:	e2 f7       	brpl	.-8      	; 0x1a2 <_Z14read_btn_valueh+0x6>
     1aa:	82 2f       	mov	r24, r18
     1ac:	81 70       	andi	r24, 0x01	; 1
	else return 0x00;
     1ae:	81 95       	neg	r24
     1b0:	08 95       	ret

000001b2 <_Z9poll_btnsv>:

 uint8_t read_btn_value(uint8_t index);

//РѕРїСЂРѕСЃ РєРЅРѕРїРѕРє, РІРѕР·РІСЂР°С‰Р°РµС‚ РёРЅРґРµРєСЃС‹ СЃРїР°РґР°СЋС‰РёС… С„СЂРѕРЅС‚РѕРІ 1->0 (РЅР°Р¶Р°С‚РёРµ)
uint8_t poll_btns(void)
{
     1b2:	bf 92       	push	r11
     1b4:	cf 92       	push	r12
     1b6:	df 92       	push	r13
     1b8:	ef 92       	push	r14
     1ba:	ff 92       	push	r15
     1bc:	0f 93       	push	r16
     1be:	1f 93       	push	r17
     1c0:	cf 93       	push	r28
     1c2:	df 93       	push	r29
     1c4:	00 e0       	ldi	r16, 0x00	; 0
     1c6:	11 e0       	ldi	r17, 0x01	; 1
	uint8_t falling_edges = 0x00;
	for(int i=0; i<btn_count; i++)
     1c8:	c0 e0       	ldi	r28, 0x00	; 0
     1ca:	d0 e0       	ldi	r29, 0x00	; 0
 uint8_t read_btn_value(uint8_t index);

//РѕРїСЂРѕСЃ РєРЅРѕРїРѕРє, РІРѕР·РІСЂР°С‰Р°РµС‚ РёРЅРґРµРєСЃС‹ СЃРїР°РґР°СЋС‰РёС… С„СЂРѕРЅС‚РѕРІ 1->0 (РЅР°Р¶Р°С‚РёРµ)
uint8_t poll_btns(void)
{
	uint8_t falling_edges = 0x00;
     1cc:	c1 2c       	mov	r12, r1
	for(int i=0; i<btn_count; i++)
	{
		uint8_t btn_cur_state = read_btn_value(i);
		// ~0 && 1
		if((btn_cur_state==0x00) & (btn_prev_state[i]==0xFF))
     1ce:	dd 24       	eor	r13, r13
     1d0:	d3 94       	inc	r13
     1d2:	b1 2c       	mov	r11, r1
			falling_edges |= (1<<i);
     1d4:	ee 24       	eor	r14, r14
     1d6:	e3 94       	inc	r14
     1d8:	f1 2c       	mov	r15, r1
uint8_t poll_btns(void)
{
	uint8_t falling_edges = 0x00;
	for(int i=0; i<btn_count; i++)
	{
		uint8_t btn_cur_state = read_btn_value(i);
     1da:	8c 2f       	mov	r24, r28
     1dc:	df df       	rcall	.-66     	; 0x19c <_Z14read_btn_valueh>
     1de:	f8 01       	movw	r30, r16
		// ~0 && 1
		if((btn_cur_state==0x00) & (btn_prev_state[i]==0xFF))
     1e0:	9d 2d       	mov	r25, r13
     1e2:	20 81       	ld	r18, Z
     1e4:	2f 3f       	cpi	r18, 0xFF	; 255
     1e6:	09 f0       	breq	.+2      	; 0x1ea <_Z9poll_btnsv+0x38>
     1e8:	9b 2d       	mov	r25, r11
     1ea:	99 23       	and	r25, r25
     1ec:	69 f0       	breq	.+26     	; 0x208 <_Z9poll_btnsv+0x56>
     1ee:	9d 2d       	mov	r25, r13
     1f0:	81 11       	cpse	r24, r1
     1f2:	9b 2d       	mov	r25, r11
     1f4:	99 23       	and	r25, r25
     1f6:	41 f0       	breq	.+16     	; 0x208 <_Z9poll_btnsv+0x56>
			falling_edges |= (1<<i);
     1f8:	97 01       	movw	r18, r14
     1fa:	0c 2e       	mov	r0, r28
     1fc:	02 c0       	rjmp	.+4      	; 0x202 <_Z9poll_btnsv+0x50>
     1fe:	22 0f       	add	r18, r18
     200:	33 1f       	adc	r19, r19
     202:	0a 94       	dec	r0
     204:	e2 f7       	brpl	.-8      	; 0x1fe <_Z9poll_btnsv+0x4c>
     206:	c2 2a       	or	r12, r18
		btn_prev_state[i] = btn_cur_state;
     208:	80 83       	st	Z, r24
     20a:	0f 5f       	subi	r16, 0xFF	; 255
     20c:	1f 4f       	sbci	r17, 0xFF	; 255

//РѕРїСЂРѕСЃ РєРЅРѕРїРѕРє, РІРѕР·РІСЂР°С‰Р°РµС‚ РёРЅРґРµРєСЃС‹ СЃРїР°РґР°СЋС‰РёС… С„СЂРѕРЅС‚РѕРІ 1->0 (РЅР°Р¶Р°С‚РёРµ)
uint8_t poll_btns(void)
{
	uint8_t falling_edges = 0x00;
	for(int i=0; i<btn_count; i++)
     20e:	21 96       	adiw	r28, 0x01	; 1
     210:	c6 30       	cpi	r28, 0x06	; 6
     212:	d1 05       	cpc	r29, r1
     214:	11 f7       	brne	.-60     	; 0x1da <_Z9poll_btnsv+0x28>
		if((btn_cur_state==0x00) & (btn_prev_state[i]==0xFF))
			falling_edges |= (1<<i);
		btn_prev_state[i] = btn_cur_state;
	};
	return falling_edges;
}
     216:	8c 2d       	mov	r24, r12
     218:	df 91       	pop	r29
     21a:	cf 91       	pop	r28
     21c:	1f 91       	pop	r17
     21e:	0f 91       	pop	r16
     220:	ff 90       	pop	r15
     222:	ef 90       	pop	r14
     224:	df 90       	pop	r13
     226:	cf 90       	pop	r12
     228:	bf 90       	pop	r11
     22a:	08 95       	ret

0000022c <_Z9port_initv>:
void btninput_init(void);

void port_init(void)
{
	//lcd1602
	LCD_PORT_DDR |= (1<<D7) | (1<<D6) | (1<<D5) | (1<<D4) | (1<<E) | (1<<RS);
     22c:	84 b3       	in	r24, 0x14	; 20
     22e:	8c 6f       	ori	r24, 0xFC	; 252
     230:	84 bb       	out	0x14, r24	; 20
	LCD_PORT &= ~(1<<D7) & ~(1<<D6) & ~(1<<D5) & ~(1<<D4) & ~(1<<E) & ~(1<<RS);
     232:	85 b3       	in	r24, 0x15	; 21
     234:	83 70       	andi	r24, 0x03	; 3
     236:	85 bb       	out	0x15, r24	; 21
	//ADC
	ADC_PORT_DDR &= ~(1<<THERMISTOR_SENSOR_PIN) & ~(1<<FAN_SPEED_SENSOR_PIN);
     238:	e1 e6       	ldi	r30, 0x61	; 97
     23a:	f0 e0       	ldi	r31, 0x00	; 0
     23c:	80 81       	ld	r24, Z
     23e:	8c 7f       	andi	r24, 0xFC	; 252
     240:	80 83       	st	Z, r24
	ADC_PORT  &= ~(1<<THERMISTOR_SENSOR_PIN) & ~(1<<FAN_SPEED_SENSOR_PIN);
     242:	e2 e6       	ldi	r30, 0x62	; 98
     244:	f0 e0       	ldi	r31, 0x00	; 0
     246:	80 81       	ld	r24, Z
     248:	8c 7f       	andi	r24, 0xFC	; 252
     24a:	80 83       	st	Z, r24
	//btns
	BTN_PORT_DDR &= ~(1<<ENABLE_SWITCH_BTN_PIN) & ~(1<<MENU_BTN_PIN) & ~(1<<UP_BTN_PIN) &  
					~(1<<DOWN_BTN_PIN) & ~(1<<SELECT_BTN_PIN) & ~(1<<BACK_BTN_PIN);
     24c:	81 b3       	in	r24, 0x11	; 17
     24e:	80 7c       	andi	r24, 0xC0	; 192
     250:	81 bb       	out	0x11, r24	; 17
	BTN_PORT |= (1<<ENABLE_SWITCH_BTN_PIN) | (1<<MENU_BTN_PIN) | (1<<UP_BTN_PIN) |
				(1<<DOWN_BTN_PIN) | (1<<SELECT_BTN_PIN) | (1<<BACK_BTN_PIN);
     252:	82 b3       	in	r24, 0x12	; 18
     254:	8f 63       	ori	r24, 0x3F	; 63
     256:	82 bb       	out	0x12, r24	; 18
	//PWM
	PWM_PORT_DDR |= (1<<HEATER_PWM_PIN) | (1<<FAN_PWM_PIN);
     258:	84 b3       	in	r24, 0x14	; 20
     25a:	83 60       	ori	r24, 0x03	; 3
     25c:	84 bb       	out	0x14, r24	; 20
	PWM_PORT &= ~(1<<HEATER_PWM_PIN) & ~(1<<FAN_PWM_PIN);
     25e:	85 b3       	in	r24, 0x15	; 21
     260:	8c 7f       	andi	r24, 0xFC	; 252
     262:	85 bb       	out	0x15, r24	; 21
	//led
	LED_PORT_DDR |= (1<<MODE0_LED_PIN) | (1<<MODE1_LED_PIN) | (1<<MODE2_LED_PIN);
     264:	8a b3       	in	r24, 0x1a	; 26
     266:	87 60       	ori	r24, 0x07	; 7
     268:	8a bb       	out	0x1a, r24	; 26
	LED_PORT &= ~(1<<MODE0_LED_PIN) & ~(1<<MODE1_LED_PIN) & ~(1<<MODE2_LED_PIN);
     26a:	8b b3       	in	r24, 0x1b	; 27
     26c:	88 7f       	andi	r24, 0xF8	; 248
     26e:	8b bb       	out	0x1b, r24	; 27
     270:	08 95       	ret

00000272 <_Z4initv>:
}

void init()
{
	cli();
     272:	f8 94       	cli
	port_init();
     274:	db df       	rcall	.-74     	; 0x22c <_Z9port_initv>
	uart_init();
     276:	2a d6       	rcall	.+3156   	; 0xecc <_Z9uart_initv>
	adc_init();
     278:	73 df       	rcall	.-282    	; 0x160 <_Z8adc_initv>
	data_init();
     27a:	4f d5       	rcall	.+2718   	; 0xd1a <_Z9data_initv>
     27c:	42 d0       	rcall	.+132    	; 0x302 <_Z8lcd_initv>
	lcd_init();
     27e:	78 94       	sei
     280:	08 95       	ret

00000282 <_Z16write_first_halfh>:
	sei();
     282:	ab 9a       	sbi	0x15, 3	; 21
     284:	95 b3       	in	r25, 0x15	; 21

//старшая половина
void write_first_half(unsigned char c) //функция вывода символов
{
	ENABLE_INPUT();			
	LCD_PORT = (LCD_PORT & 0x0F) | (c & 0xF0);
     286:	9f 70       	andi	r25, 0x0F	; 15
     288:	80 7f       	andi	r24, 0xF0	; 240
     28a:	89 2b       	or	r24, r25
     28c:	85 bb       	out	0x15, r24	; 21
	#else
		//round up by default
		__ticks_dc = (uint32_t)(ceil(fabs(__tmp)));
	#endif

	__builtin_avr_delay_cycles(__ticks_dc);
     28e:	83 ec       	ldi	r24, 0xC3	; 195
     290:	99 e0       	ldi	r25, 0x09	; 9
     292:	01 97       	sbiw	r24, 0x01	; 1
     294:	f1 f7       	brne	.-4      	; 0x292 <_Z16write_first_halfh+0x10>
     296:	00 c0       	rjmp	.+0      	; 0x298 <_Z16write_first_halfh+0x16>
     298:	00 00       	nop
	_delay_ms(1);
	DISABLE_INPUT();
     29a:	ab 98       	cbi	0x15, 3	; 21
     29c:	83 ec       	ldi	r24, 0xC3	; 195
     29e:	99 e0       	ldi	r25, 0x09	; 9
     2a0:	01 97       	sbiw	r24, 0x01	; 1
     2a2:	f1 f7       	brne	.-4      	; 0x2a0 <_Z16write_first_halfh+0x1e>
     2a4:	00 c0       	rjmp	.+0      	; 0x2a6 <_Z16write_first_halfh+0x24>
     2a6:	00 00       	nop
     2a8:	08 95       	ret

000002aa <_Z17write_second_halfh>:
}

//младшая половина
void write_second_half(unsigned char c) //функция вывода символов
{
	ENABLE_INPUT();
     2aa:	ab 9a       	sbi	0x15, 3	; 21
	LCD_PORT = (LCD_PORT & 0x0F) | (c << 4);
     2ac:	25 b3       	in	r18, 0x15	; 21
     2ae:	2f 70       	andi	r18, 0x0F	; 15
     2b0:	30 e1       	ldi	r19, 0x10	; 16
     2b2:	83 9f       	mul	r24, r19
     2b4:	c0 01       	movw	r24, r0
     2b6:	11 24       	eor	r1, r1
     2b8:	82 2b       	or	r24, r18
     2ba:	85 bb       	out	0x15, r24	; 21
     2bc:	83 ec       	ldi	r24, 0xC3	; 195
     2be:	99 e0       	ldi	r25, 0x09	; 9
     2c0:	01 97       	sbiw	r24, 0x01	; 1
     2c2:	f1 f7       	brne	.-4      	; 0x2c0 <_Z17write_second_halfh+0x16>
     2c4:	00 c0       	rjmp	.+0      	; 0x2c6 <_Z17write_second_halfh+0x1c>
     2c6:	00 00       	nop
	_delay_ms(1);
	DISABLE_INPUT();
     2c8:	ab 98       	cbi	0x15, 3	; 21
     2ca:	83 ec       	ldi	r24, 0xC3	; 195
     2cc:	99 e0       	ldi	r25, 0x09	; 9
     2ce:	01 97       	sbiw	r24, 0x01	; 1
     2d0:	f1 f7       	brne	.-4      	; 0x2ce <_Z17write_second_halfh+0x24>
     2d2:	00 c0       	rjmp	.+0      	; 0x2d4 <_Z17write_second_halfh+0x2a>
     2d4:	00 00       	nop
     2d6:	08 95       	ret

000002d8 <_Z13write_commandh>:
	//save to prev
	for (int i=0; i<32; i++) arr_prev[i] = arr[i];
}
//отправить команду
void write_command(unsigned char command) //функция управления
{
     2d8:	cf 93       	push	r28
     2da:	c8 2f       	mov	r28, r24
	SET_COMMAND_OUTPUT();
     2dc:	aa 98       	cbi	0x15, 2	; 21
     2de:	83 ec       	ldi	r24, 0xC3	; 195
     2e0:	99 e0       	ldi	r25, 0x09	; 9
     2e2:	01 97       	sbiw	r24, 0x01	; 1
     2e4:	f1 f7       	brne	.-4      	; 0x2e2 <_Z13write_commandh+0xa>
     2e6:	00 c0       	rjmp	.+0      	; 0x2e8 <_Z13write_commandh+0x10>
     2e8:	00 00       	nop
	_delay_ms(1);
	write_first_half(command);
     2ea:	8c 2f       	mov	r24, r28
     2ec:	ca df       	rcall	.-108    	; 0x282 <_Z16write_first_halfh>
	write_second_half(command);
     2ee:	8c 2f       	mov	r24, r28
     2f0:	dc df       	rcall	.-72     	; 0x2aa <_Z17write_second_halfh>
     2f2:	83 ec       	ldi	r24, 0xC3	; 195
     2f4:	99 e0       	ldi	r25, 0x09	; 9
     2f6:	01 97       	sbiw	r24, 0x01	; 1
     2f8:	f1 f7       	brne	.-4      	; 0x2f6 <_Z13write_commandh+0x1e>
     2fa:	00 c0       	rjmp	.+0      	; 0x2fc <_Z13write_commandh+0x24>
     2fc:	00 00       	nop
	_delay_ms(1);
}
     2fe:	cf 91       	pop	r28
     300:	08 95       	ret

00000302 <_Z8lcd_initv>:
     302:	2f e9       	ldi	r18, 0x9F	; 159
     304:	86 e8       	ldi	r24, 0x86	; 134
     306:	91 e0       	ldi	r25, 0x01	; 1
     308:	21 50       	subi	r18, 0x01	; 1
     30a:	80 40       	sbci	r24, 0x00	; 0
     30c:	90 40       	sbci	r25, 0x00	; 0
     30e:	e1 f7       	brne	.-8      	; 0x308 <_Z8lcd_initv+0x6>
     310:	00 c0       	rjmp	.+0      	; 0x312 <_Z8lcd_initv+0x10>
     312:	00 00       	nop
//init
void lcd_init()
{
	_delay_ms(50);
	//write_command(0x30); //8 bit
	write_first_half(0x28); //4 bit, new cycle
     314:	88 e2       	ldi	r24, 0x28	; 40
     316:	b5 df       	rcall	.-150    	; 0x282 <_Z16write_first_halfh>
	write_command(0x08); //off
     318:	88 e0       	ldi	r24, 0x08	; 8
     31a:	de df       	rcall	.-68     	; 0x2d8 <_Z13write_commandh>
	write_command(0x28);
     31c:	88 e2       	ldi	r24, 0x28	; 40
     31e:	dc df       	rcall	.-72     	; 0x2d8 <_Z13write_commandh>
	write_command(0x01); //clear, zero pos
     320:	81 e0       	ldi	r24, 0x01	; 1
     322:	da df       	rcall	.-76     	; 0x2d8 <_Z13write_commandh>
	write_command(0x06); //cursor -> on write
     324:	86 e0       	ldi	r24, 0x06	; 6
     326:	d8 df       	rcall	.-80     	; 0x2d8 <_Z13write_commandh>
     328:	8c e0       	ldi	r24, 0x0C	; 12
	write_command(0x0C); //on, no cursor
     32a:	d6 df       	rcall	.-84     	; 0x2d8 <_Z13write_commandh>
     32c:	e6 ec       	ldi	r30, 0xC6	; 198
     32e:	f1 e0       	ldi	r31, 0x01	; 1
     330:	86 ee       	ldi	r24, 0xE6	; 230
     332:	91 e0       	ldi	r25, 0x01	; 1
     334:	11 92       	st	Z+, r1
	
	for (int i=0; i<32; i++)
	arr_prev[i] = 0x00;	
     336:	e8 17       	cp	r30, r24
	write_command(0x28);
	write_command(0x01); //clear, zero pos
	write_command(0x06); //cursor -> on write
	write_command(0x0C); //on, no cursor
	
	for (int i=0; i<32; i++)
     338:	f9 07       	cpc	r31, r25
     33a:	e1 f7       	brne	.-8      	; 0x334 <_Z8lcd_initv+0x32>
     33c:	5a c3       	rjmp	.+1716   	; 0x9f2 <_Z9menu_initv>
	arr_prev[i] = 0x00;	
	
	menu_init();
     33e:	08 95       	ret

00000340 <_Z10write_charh>:
     340:	cf 93       	push	r28
     342:	c8 2f       	mov	r28, r24
}

//отправить символ
void write_char(unsigned char data)
{
	SET_DATA_OUTPUT();
     344:	aa 9a       	sbi	0x15, 2	; 21
     346:	83 ec       	ldi	r24, 0xC3	; 195
     348:	99 e0       	ldi	r25, 0x09	; 9
     34a:	01 97       	sbiw	r24, 0x01	; 1
     34c:	f1 f7       	brne	.-4      	; 0x34a <_Z10write_charh+0xa>
     34e:	00 c0       	rjmp	.+0      	; 0x350 <_Z10write_charh+0x10>
     350:	00 00       	nop
	_delay_ms(1);
	write_first_half(data);
     352:	8c 2f       	mov	r24, r28
     354:	96 df       	rcall	.-212    	; 0x282 <_Z16write_first_halfh>
	write_second_half(data);
     356:	8c 2f       	mov	r24, r28
     358:	a8 df       	rcall	.-176    	; 0x2aa <_Z17write_second_halfh>
}
     35a:	cf 91       	pop	r28
     35c:	08 95       	ret

0000035e <_Z9LCD_printPh>:
	DISABLE_INPUT();
	_delay_ms(1);
}
//вывод страницы
void LCD_print(uint8_t arr[32])
{
     35e:	0f 93       	push	r16
     360:	1f 93       	push	r17
     362:	cf 93       	push	r28
     364:	df 93       	push	r29
     366:	8c 01       	movw	r16, r24
     368:	c1 e0       	ldi	r28, 0x01	; 1
     36a:	d0 e0       	ldi	r29, 0x00	; 0
     36c:	03 c0       	rjmp	.+6      	; 0x374 <_Z9LCD_printPh+0x16>
     36e:	21 96       	adiw	r28, 0x01	; 1
     370:	0f 5f       	subi	r16, 0xFF	; 255
     372:	1f 4f       	sbci	r17, 0xFF	; 255
	for (int i=0; i<32; i++)
	{
		if(i==16) NEXT_ROW();
     374:	c1 31       	cpi	r28, 0x11	; 17
     376:	d1 05       	cpc	r29, r1
     378:	31 f4       	brne	.+12     	; 0x386 <_Z9LCD_printPh+0x28>
     37a:	80 ec       	ldi	r24, 0xC0	; 192
     37c:	ad df       	rcall	.-166    	; 0x2d8 <_Z13write_commandh>
		write_char(arr[i]);
     37e:	f8 01       	movw	r30, r16
     380:	80 81       	ld	r24, Z
     382:	de df       	rcall	.-68     	; 0x340 <_Z10write_charh>
     384:	f4 cf       	rjmp	.-24     	; 0x36e <_Z9LCD_printPh+0x10>
     386:	f8 01       	movw	r30, r16
     388:	80 81       	ld	r24, Z
     38a:	da df       	rcall	.-76     	; 0x340 <_Z10write_charh>
	_delay_ms(1);
}
//вывод страницы
void LCD_print(uint8_t arr[32])
{
	for (int i=0; i<32; i++)
     38c:	c0 32       	cpi	r28, 0x20	; 32
     38e:	d1 05       	cpc	r29, r1
     390:	74 f3       	brlt	.-36     	; 0x36e <_Z9LCD_printPh+0x10>
	{
		if(i==16) NEXT_ROW();
		write_char(arr[i]);
	}
}
     392:	df 91       	pop	r29
     394:	cf 91       	pop	r28
     396:	1f 91       	pop	r17
     398:	0f 91       	pop	r16
     39a:	08 95       	ret

0000039c <_Z13screen_outputv>:

}

//вывод на 1602
void screen_output()
{
     39c:	cf 93       	push	r28
     39e:	df 93       	push	r29
	//input image
	uint8_t* arr = get_cur_screen();
     3a0:	7e d0       	rcall	.+252    	; 0x49e <_Z14get_cur_screenv>
     3a2:	ec 01       	movw	r28, r24

	//same as before
	bool eq = true;
	for (int i=0; i<32; i++)
	if(arr[i]!=arr_prev[i])
     3a4:	98 81       	ld	r25, Y
     3a6:	80 91 c6 01 	lds	r24, 0x01C6	; 0x8001c6 <__data_end>
     3aa:	98 13       	cpse	r25, r24
     3ac:	18 c0       	rjmp	.+48     	; 0x3de <_Z13screen_outputv+0x42>
     3ae:	de 01       	movw	r26, r28
     3b0:	11 96       	adiw	r26, 0x01	; 1
     3b2:	e7 ec       	ldi	r30, 0xC7	; 199
     3b4:	f1 e0       	ldi	r31, 0x01	; 1
     3b6:	26 ee       	ldi	r18, 0xE6	; 230
     3b8:	31 e0       	ldi	r19, 0x01	; 1
     3ba:	9d 91       	ld	r25, X+
     3bc:	81 91       	ld	r24, Z+
     3be:	98 13       	cpse	r25, r24
     3c0:	0e c0       	rjmp	.+28     	; 0x3de <_Z13screen_outputv+0x42>
	//input image
	uint8_t* arr = get_cur_screen();

	//same as before
	bool eq = true;
	for (int i=0; i<32; i++)
     3c2:	e2 17       	cp	r30, r18
     3c4:	f3 07       	cpc	r31, r19
     3c6:	c9 f7       	brne	.-14     	; 0x3ba <_Z13screen_outputv+0x1e>
     3c8:	de 01       	movw	r26, r28
     3ca:	e6 ec       	ldi	r30, 0xC6	; 198
     3cc:	f1 e0       	ldi	r31, 0x01	; 1
     3ce:	26 ee       	ldi	r18, 0xE6	; 230
     3d0:	31 e0       	ldi	r19, 0x01	; 1
	{
		CLEAR_SCR();
		LCD_print(arr);
	}	
	//save to prev
	for (int i=0; i<32; i++) arr_prev[i] = arr[i];
     3d2:	8d 91       	ld	r24, X+
     3d4:	81 93       	st	Z+, r24
     3d6:	2e 17       	cp	r18, r30
     3d8:	3f 07       	cpc	r19, r31
     3da:	d9 f7       	brne	.-10     	; 0x3d2 <_Z13screen_outputv+0x36>
     3dc:	05 c0       	rjmp	.+10     	; 0x3e8 <_Z13screen_outputv+0x4c>
		break;
	}
	//different
	if(!eq)
	{
		CLEAR_SCR();
     3de:	81 e0       	ldi	r24, 0x01	; 1
     3e0:	7b df       	rcall	.-266    	; 0x2d8 <_Z13write_commandh>
		LCD_print(arr);
     3e2:	ce 01       	movw	r24, r28
     3e4:	bc df       	rcall	.-136    	; 0x35e <_Z9LCD_printPh>
     3e6:	f0 cf       	rjmp	.-32     	; 0x3c8 <_Z13screen_outputv+0x2c>
     3e8:	df 91       	pop	r29
	}	
	//save to prev
	for (int i=0; i<32; i++) arr_prev[i] = arr[i];
}
     3ea:	cf 91       	pop	r28
     3ec:	08 95       	ret

000003ee <_Z13enable_cursorv>:
     3ee:	8f e0       	ldi	r24, 0x0F	; 15
	}
}
//видимый курсор
void enable_cursor(void)
{
	write_command(0x0F);
     3f0:	73 cf       	rjmp	.-282    	; 0x2d8 <_Z13write_commandh>
     3f2:	08 95       	ret

000003f4 <_Z14disable_cursorv>:
}
//невидимый курсор
void disable_cursor(void)
{
	write_command(0x0C);
     3f4:	8c e0       	ldi	r24, 0x0C	; 12
     3f6:	70 cf       	rjmp	.-288    	; 0x2d8 <_Z13write_commandh>
     3f8:	08 95       	ret

000003fa <_Z14set_cursor_posh>:
}
//перемещение курсора
void set_cursor_pos(uint8_t cur_pos)
{
	write_command(0x80+cur_pos);
     3fa:	80 58       	subi	r24, 0x80	; 128
     3fc:	6d cf       	rjmp	.-294    	; 0x2d8 <_Z13write_commandh>
     3fe:	08 95       	ret

00000400 <main>:
uint8_t poll_btns(void);
void process_button(uint8_t falling_edges);

int main(void)
{
    init();
     400:	38 df       	rcall	.-400    	; 0x272 <_Z4initv>
    while (1) 
    {
		uint16_t adc0adc1 = poll_adc();
     402:	d1 e0       	ldi	r29, 0x01	; 1
		uint8_t falling_edges = poll_btns();
     404:	bc de       	rcall	.-648    	; 0x17e <_Z8poll_adcv>
     406:	d5 de       	rcall	.-598    	; 0x1b2 <_Z9poll_btnsv>
		process_button(falling_edges);
     408:	c8 2f       	mov	r28, r24
     40a:	43 d4       	rcall	.+2182   	; 0xc92 <_Z14process_buttonh>
		if(falling_edges & 0b00100000)
     40c:	c5 ff       	sbrs	r28, 5
		PORTA^=0x01;
     40e:	03 c0       	rjmp	.+6      	; 0x416 <main+0x16>
     410:	8b b3       	in	r24, 0x1b	; 27
		//if(falling_edges & 0x02)
		//PORTA^=0x02;
		//if(falling_edges & 0x04)
		//PORTA^=0x04;
		screen_output();
     412:	8d 27       	eor	r24, r29
     414:	8b bb       	out	0x1b, r24	; 27
		uart_send_char();
     416:	c2 df       	rcall	.-124    	; 0x39c <_Z13screen_outputv>
     418:	66 d5       	rcall	.+2764   	; 0xee6 <_Z14uart_send_charv>
     41a:	87 ea       	ldi	r24, 0xA7	; 167
     41c:	91 e6       	ldi	r25, 0x61	; 97
     41e:	01 97       	sbiw	r24, 0x01	; 1
     420:	f1 f7       	brne	.-4      	; 0x41e <main+0x1e>
     422:	00 c0       	rjmp	.+0      	; 0x424 <main+0x24>
     424:	00 00       	nop
     426:	ee cf       	rjmp	.-36     	; 0x404 <main+0x4>

00000428 <_Z19set_template_screenPh>:
}


//шаблон страницы
void set_template_screen(uint8_t template_screen[32])
{
     428:	dc 01       	movw	r26, r24
     42a:	e7 ef       	ldi	r30, 0xF7	; 247
     42c:	f1 e0       	ldi	r31, 0x01	; 1
     42e:	27 e1       	ldi	r18, 0x17	; 23
     430:	32 e0       	ldi	r19, 0x02	; 2
	for(int i=0; i<32; i++)
	cur_screen[i] = template_screen[i];
     432:	8d 91       	ld	r24, X+
     434:	81 93       	st	Z+, r24


//шаблон страницы
void set_template_screen(uint8_t template_screen[32])
{
	for(int i=0; i<32; i++)
     436:	e2 17       	cp	r30, r18
     438:	f3 07       	cpc	r31, r19
     43a:	d9 f7       	brne	.-10     	; 0x432 <_Z19set_template_screenPh+0xa>
	cur_screen[i] = template_screen[i];
}
     43c:	08 95       	ret

0000043e <_Z18set_button_actionsh>:

//назначения кнопок в зависимости от типа страницы
void set_button_actions(uint8_t page_type)
{
	switch(page_type)
     43e:	81 30       	cpi	r24, 0x01	; 1
     440:	81 f0       	breq	.+32     	; 0x462 <_Z18set_button_actionsh+0x24>
     442:	18 f0       	brcs	.+6      	; 0x44a <_Z18set_button_actionsh+0xc>
     444:	82 30       	cpi	r24, 0x02	; 2
     446:	d9 f0       	breq	.+54     	; 0x47e <_Z18set_button_actionsh+0x40>
     448:	08 95       	ret
	{
		case MAIN_PAGE:
			menu_btn_action = BTN_ACTION_OPEN_MENU;
     44a:	84 e0       	ldi	r24, 0x04	; 4
     44c:	80 93 f5 01 	sts	0x01F5, r24	; 0x8001f5 <menu_btn_action>
			back_btn_action = BTN_ACTION_OPEN_MENU;
     450:	80 93 f4 01 	sts	0x01F4, r24	; 0x8001f4 <back_btn_action>
			select_btn_action = BTN_ACTION_OPEN_MENU;
     454:	80 93 f3 01 	sts	0x01F3, r24	; 0x8001f3 <select_btn_action>
			up_btn_action = BTN_ACTION_OPEN_MENU;
     458:	80 93 f2 01 	sts	0x01F2, r24	; 0x8001f2 <up_btn_action>
			down_btn_action = BTN_ACTION_OPEN_MENU;
     45c:	80 93 f1 01 	sts	0x01F1, r24	; 0x8001f1 <down_btn_action>
			break;
     460:	08 95       	ret
			
		case MENU_PAGE:
			menu_btn_action = BTN_ACTION_CLOSE_MENU;
     462:	87 e0       	ldi	r24, 0x07	; 7
     464:	80 93 f5 01 	sts	0x01F5, r24	; 0x8001f5 <menu_btn_action>
			back_btn_action = BTN_ACTION_CLOSE_MENU;
     468:	80 93 f4 01 	sts	0x01F4, r24	; 0x8001f4 <back_btn_action>
			select_btn_action = BTN_ACTION_OPEN_INPUT;
     46c:	88 e0       	ldi	r24, 0x08	; 8
     46e:	80 93 f3 01 	sts	0x01F3, r24	; 0x8001f3 <select_btn_action>
			up_btn_action = BTN_ACTION_MENU_UP;
     472:	82 e0       	ldi	r24, 0x02	; 2
     474:	80 93 f2 01 	sts	0x01F2, r24	; 0x8001f2 <up_btn_action>
			down_btn_action = BTN_ACTION_MENU_DOWN;
     478:	10 92 f1 01 	sts	0x01F1, r1	; 0x8001f1 <down_btn_action>
		break;
     47c:	08 95       	ret
		
		case INPUT_PAGE:
			menu_btn_action = BTN_ACTION_NEXT_DIGIT;
     47e:	85 e0       	ldi	r24, 0x05	; 5
     480:	80 93 f5 01 	sts	0x01F5, r24	; 0x8001f5 <menu_btn_action>
			back_btn_action = BTN_ACTION_OPEN_MENU;
     484:	84 e0       	ldi	r24, 0x04	; 4
     486:	80 93 f4 01 	sts	0x01F4, r24	; 0x8001f4 <back_btn_action>
			select_btn_action = BTN_ACTION_ACCEPT_VALUE;
     48a:	89 e0       	ldi	r24, 0x09	; 9
     48c:	80 93 f3 01 	sts	0x01F3, r24	; 0x8001f3 <select_btn_action>
			up_btn_action = BTN_ACTION_VALUE_INC;
     490:	83 e0       	ldi	r24, 0x03	; 3
     492:	80 93 f2 01 	sts	0x01F2, r24	; 0x8001f2 <up_btn_action>
			down_btn_action = BTN_ACTION_VALUE_DEC;
     496:	81 e0       	ldi	r24, 0x01	; 1
     498:	80 93 f1 01 	sts	0x01F1, r24	; 0x8001f1 <down_btn_action>
     49c:	08 95       	ret

0000049e <_Z14get_cur_screenv>:
}

uint8_t* get_cur_screen(void)
{
	return cur_screen;
}
     49e:	87 ef       	ldi	r24, 0xF7	; 247
     4a0:	91 e0       	ldi	r25, 0x01	; 1
     4a2:	08 95       	ret

000004a4 <_Z17enable_value_edithh>:
	i_source_value = value;
	enable_value_edit(start_pos_val,end_pos_val);
}
void enable_value_edit(uint8_t start_pos_val, uint8_t end_pos_val)
{
	is_edit_enabled = true;
     4a4:	91 e0       	ldi	r25, 0x01	; 1
     4a6:	90 93 ef 01 	sts	0x01EF, r25	; 0x8001ef <is_edit_enabled>
	start_pos = start_pos_val;
     4aa:	80 93 ed 01 	sts	0x01ED, r24	; 0x8001ed <start_pos>
	end_pos = end_pos_val;
     4ae:	60 93 ec 01 	sts	0x01EC, r22	; 0x8001ec <end_pos>
	cur_pos = start_pos;
     4b2:	80 93 eb 01 	sts	0x01EB, r24	; 0x8001eb <cur_pos>
	enable_cursor();
     4b6:	9b df       	rcall	.-202    	; 0x3ee <_Z13enable_cursorv>
	set_cursor_pos(cur_pos);
     4b8:	80 91 eb 01 	lds	r24, 0x01EB	; 0x8001eb <cur_pos>
     4bc:	9e cf       	rjmp	.-196    	; 0x3fa <_Z14set_cursor_posh>
     4be:	08 95       	ret

000004c0 <_Z17enable_value_edithhf>:
}

//вкючить редактирование выбранного значения
void enable_value_edit(uint8_t start_pos_val, uint8_t end_pos_val, float value)
{
	float_value = true;
     4c0:	91 e0       	ldi	r25, 0x01	; 1
     4c2:	90 93 ee 01 	sts	0x01EE, r25	; 0x8001ee <float_value>
	f_source_value = value;
     4c6:	20 93 e6 01 	sts	0x01E6, r18	; 0x8001e6 <f_source_value>
     4ca:	30 93 e7 01 	sts	0x01E7, r19	; 0x8001e7 <f_source_value+0x1>
     4ce:	40 93 e8 01 	sts	0x01E8, r20	; 0x8001e8 <f_source_value+0x2>
     4d2:	50 93 e9 01 	sts	0x01E9, r21	; 0x8001e9 <f_source_value+0x3>
	enable_value_edit(start_pos_val,end_pos_val);
     4d6:	e6 cf       	rjmp	.-52     	; 0x4a4 <_Z17enable_value_edithh>
     4d8:	08 95       	ret

000004da <_Z17enable_value_edithhh>:
}
void enable_value_edit(uint8_t start_pos_val, uint8_t end_pos_val, uint8_t value)
{
	
	float_value = false;
     4da:	10 92 ee 01 	sts	0x01EE, r1	; 0x8001ee <float_value>
	i_source_value = value;
     4de:	40 93 ea 01 	sts	0x01EA, r20	; 0x8001ea <i_source_value>
	enable_value_edit(start_pos_val,end_pos_val);
     4e2:	e0 cf       	rjmp	.-64     	; 0x4a4 <_Z17enable_value_edithh>
     4e4:	08 95       	ret

000004e6 <_Z11insert_datav>:
	insert_data();
}

//вставка значений на страницу
void insert_data(void)
{
     4e6:	cf 92       	push	r12
     4e8:	df 92       	push	r13
     4ea:	ef 92       	push	r14
     4ec:	ff 92       	push	r15
     4ee:	0f 93       	push	r16
     4f0:	1f 93       	push	r17
     4f2:	cf 93       	push	r28
     4f4:	df 93       	push	r29
	switch(page_type)
     4f6:	80 91 f6 01 	lds	r24, 0x01F6	; 0x8001f6 <page_type>
     4fa:	81 30       	cpi	r24, 0x01	; 1
     4fc:	09 f4       	brne	.+2      	; 0x500 <_Z11insert_datav+0x1a>
     4fe:	bf c0       	rjmp	.+382    	; 0x67e <_Z11insert_datav+0x198>
     500:	20 f0       	brcs	.+8      	; 0x50a <_Z11insert_datav+0x24>
     502:	82 30       	cpi	r24, 0x02	; 2
     504:	09 f4       	brne	.+2      	; 0x508 <_Z11insert_datav+0x22>
     506:	cd c0       	rjmp	.+410    	; 0x6a2 <_Z11insert_datav+0x1bc>
     508:	6b c2       	rjmp	.+1238   	; 0x9e0 <_Z11insert_datav+0x4fa>
	{
		case MAIN_PAGE:
		{
			//uint8_t MAIN_SCREEN[32] = {'t','=','*','*','*','/','*','*','*',' ','@','=','*','*','*','*',
			//						     'P','=','*','*','*','I','=','*','*','*','D','=','*','*','*',' '};
			uint8_t t = get_cur_temp();
     50a:	bf d4       	rcall	.+2430   	; 0xe8a <_Z12get_cur_tempv>
			cur_screen[2] = (t/100) + '0';
     50c:	c7 ef       	ldi	r28, 0xF7	; 247
     50e:	d1 e0       	ldi	r29, 0x01	; 1
     510:	09 e2       	ldi	r16, 0x29	; 41
     512:	80 9f       	mul	r24, r16
     514:	91 2d       	mov	r25, r1
     516:	11 24       	eor	r1, r1
     518:	92 95       	swap	r25
     51a:	9f 70       	andi	r25, 0x0F	; 15
     51c:	90 5d       	subi	r25, 0xD0	; 208
     51e:	9a 83       	std	Y+2, r25	; 0x02
			cur_screen[3] = (t/10) + '0';
     520:	1d ec       	ldi	r17, 0xCD	; 205
     522:	81 9f       	mul	r24, r17
     524:	91 2d       	mov	r25, r1
     526:	11 24       	eor	r1, r1
     528:	96 95       	lsr	r25
     52a:	96 95       	lsr	r25
     52c:	96 95       	lsr	r25
     52e:	90 5d       	subi	r25, 0xD0	; 208
     530:	9b 83       	std	Y+3, r25	; 0x03
			cur_screen[4] = (t/1) + '0';
     532:	80 5d       	subi	r24, 0xD0	; 208
			t = get_target_temp();
     534:	8c 83       	std	Y+4, r24	; 0x04
     536:	97 d4       	rcall	.+2350   	; 0xe66 <_Z15get_target_tempv>
			cur_screen[6] = (t/100) + '0';
     538:	80 9f       	mul	r24, r16
     53a:	01 2d       	mov	r16, r1
     53c:	11 24       	eor	r1, r1
     53e:	02 95       	swap	r16
     540:	0f 70       	andi	r16, 0x0F	; 15
     542:	90 e3       	ldi	r25, 0x30	; 48
     544:	90 0f       	add	r25, r16
     546:	9e 83       	std	Y+6, r25	; 0x06
			cur_screen[7] = ((t%100)/10) + '0';
     548:	98 2f       	mov	r25, r24
     54a:	24 e6       	ldi	r18, 0x64	; 100
     54c:	02 9f       	mul	r16, r18
     54e:	90 19       	sub	r25, r0
     550:	11 24       	eor	r1, r1
     552:	91 9f       	mul	r25, r17
     554:	91 2d       	mov	r25, r1
     556:	11 24       	eor	r1, r1
     558:	96 95       	lsr	r25
     55a:	96 95       	lsr	r25
     55c:	96 95       	lsr	r25
     55e:	90 5d       	subi	r25, 0xD0	; 208
     560:	9f 83       	std	Y+7, r25	; 0x07
			cur_screen[8] = (t%10) + '0';
     562:	81 9f       	mul	r24, r17
     564:	11 2d       	mov	r17, r1
     566:	11 24       	eor	r1, r1
     568:	16 95       	lsr	r17
     56a:	16 95       	lsr	r17
     56c:	16 95       	lsr	r17
     56e:	11 0f       	add	r17, r17
     570:	91 2f       	mov	r25, r17
     572:	99 0f       	add	r25, r25
     574:	99 0f       	add	r25, r25
     576:	19 0f       	add	r17, r25
     578:	81 1b       	sub	r24, r17
     57a:	80 5d       	subi	r24, 0xD0	; 208
			float f = get_fan_speed();
     57c:	88 87       	std	Y+8, r24	; 0x08
     57e:	8e d4       	rcall	.+2332   	; 0xe9c <_Z13get_fan_speedv>
			cur_screen[12] = ((int)f/1000) + '0';
     580:	21 d5       	rcall	.+2626   	; 0xfc4 <__fixsfsi>
     582:	9b 01       	movw	r18, r22
     584:	cb 01       	movw	r24, r22
     586:	68 ee       	ldi	r22, 0xE8	; 232
     588:	73 e0       	ldi	r23, 0x03	; 3
     58a:	0e 94 d1 0a 	call	0x15a2	; 0x15a2 <__divmodhi4>
     58e:	60 5d       	subi	r22, 0xD0	; 208
     590:	6c 87       	std	Y+12, r22	; 0x0c
     592:	e4 e6       	ldi	r30, 0x64	; 100
			cur_screen[13] = ((int)f%1000)/100 + '0';
     594:	f0 e0       	ldi	r31, 0x00	; 0
     596:	bf 01       	movw	r22, r30
     598:	0e 94 d1 0a 	call	0x15a2	; 0x15a2 <__divmodhi4>
     59c:	60 5d       	subi	r22, 0xD0	; 208
     59e:	6d 87       	std	Y+13, r22	; 0x0d
			cur_screen[14] = ((int)f%100)/10 + '0';
     5a0:	c9 01       	movw	r24, r18
     5a2:	bf 01       	movw	r22, r30
     5a4:	fe d7       	rcall	.+4092   	; 0x15a2 <__divmodhi4>
     5a6:	0a e0       	ldi	r16, 0x0A	; 10
     5a8:	10 e0       	ldi	r17, 0x00	; 0
     5aa:	b8 01       	movw	r22, r16
     5ac:	fa d7       	rcall	.+4084   	; 0x15a2 <__divmodhi4>
     5ae:	60 5d       	subi	r22, 0xD0	; 208
     5b0:	6e 87       	std	Y+14, r22	; 0x0e
			cur_screen[15] = ((int)f%10) + '0';
     5b2:	c9 01       	movw	r24, r18
     5b4:	b8 01       	movw	r22, r16
     5b6:	f5 d7       	rcall	.+4074   	; 0x15a2 <__divmodhi4>
     5b8:	80 5d       	subi	r24, 0xD0	; 208
     5ba:	8f 87       	std	Y+15, r24	; 0x0f
			f = get_Kp();
     5bc:	1e d4       	rcall	.+2108   	; 0xdfa <_Z6get_Kpv>
     5be:	6b 01       	movw	r12, r22
     5c0:	7c 01       	movw	r14, r24
     5c2:	00 d5       	rcall	.+2560   	; 0xfc4 <__fixsfsi>
			cur_screen[18] = ((int)f) + '0';
     5c4:	60 5d       	subi	r22, 0xD0	; 208
     5c6:	6a 8b       	std	Y+18, r22	; 0x12
     5c8:	20 e0       	ldi	r18, 0x00	; 0
     5ca:	30 e0       	ldi	r19, 0x00	; 0
			cur_screen[19] = ((int)(10 * f) %10) + '0';
     5cc:	40 e2       	ldi	r20, 0x20	; 32
     5ce:	51 e4       	ldi	r21, 0x41	; 65
     5d0:	c7 01       	movw	r24, r14
     5d2:	b6 01       	movw	r22, r12
     5d4:	b6 d5       	rcall	.+2924   	; 0x1142 <__mulsf3>
     5d6:	f6 d4       	rcall	.+2540   	; 0xfc4 <__fixsfsi>
     5d8:	cb 01       	movw	r24, r22
     5da:	b8 01       	movw	r22, r16
     5dc:	e2 d7       	rcall	.+4036   	; 0x15a2 <__divmodhi4>
     5de:	80 5d       	subi	r24, 0xD0	; 208
     5e0:	8b 8b       	std	Y+19, r24	; 0x13
     5e2:	20 e0       	ldi	r18, 0x00	; 0
     5e4:	30 e0       	ldi	r19, 0x00	; 0
			cur_screen[20] = ((int)(100 * f) %10) + '0';
     5e6:	48 ec       	ldi	r20, 0xC8	; 200
     5e8:	52 e4       	ldi	r21, 0x42	; 66
     5ea:	c7 01       	movw	r24, r14
     5ec:	b6 01       	movw	r22, r12
     5ee:	a9 d5       	rcall	.+2898   	; 0x1142 <__mulsf3>
     5f0:	e9 d4       	rcall	.+2514   	; 0xfc4 <__fixsfsi>
     5f2:	cb 01       	movw	r24, r22
     5f4:	b8 01       	movw	r22, r16
     5f6:	d5 d7       	rcall	.+4010   	; 0x15a2 <__divmodhi4>
     5f8:	80 5d       	subi	r24, 0xD0	; 208
     5fa:	8c 8b       	std	Y+20, r24	; 0x14
     5fc:	10 d4       	rcall	.+2080   	; 0xe1e <_Z6get_Kiv>
     5fe:	6b 01       	movw	r12, r22
			f = get_Ki();
     600:	7c 01       	movw	r14, r24
     602:	e0 d4       	rcall	.+2496   	; 0xfc4 <__fixsfsi>
     604:	60 5d       	subi	r22, 0xD0	; 208
			cur_screen[23] = ((int)f) + '0';
     606:	6f 8b       	std	Y+23, r22	; 0x17
     608:	20 e0       	ldi	r18, 0x00	; 0
     60a:	30 e0       	ldi	r19, 0x00	; 0
     60c:	40 e2       	ldi	r20, 0x20	; 32
			cur_screen[24] = ((int)(10 * f) %10) + '0';
     60e:	51 e4       	ldi	r21, 0x41	; 65
     610:	c7 01       	movw	r24, r14
     612:	b6 01       	movw	r22, r12
     614:	96 d5       	rcall	.+2860   	; 0x1142 <__mulsf3>
     616:	d6 d4       	rcall	.+2476   	; 0xfc4 <__fixsfsi>
     618:	cb 01       	movw	r24, r22
     61a:	b8 01       	movw	r22, r16
     61c:	c2 d7       	rcall	.+3972   	; 0x15a2 <__divmodhi4>
     61e:	80 5d       	subi	r24, 0xD0	; 208
     620:	88 8f       	std	Y+24, r24	; 0x18
     622:	20 e0       	ldi	r18, 0x00	; 0
     624:	30 e0       	ldi	r19, 0x00	; 0
     626:	48 ec       	ldi	r20, 0xC8	; 200
			cur_screen[25] = ((int)(100 * f) %10) + '0';
     628:	52 e4       	ldi	r21, 0x42	; 66
     62a:	c7 01       	movw	r24, r14
     62c:	b6 01       	movw	r22, r12
     62e:	89 d5       	rcall	.+2834   	; 0x1142 <__mulsf3>
     630:	c9 d4       	rcall	.+2450   	; 0xfc4 <__fixsfsi>
     632:	cb 01       	movw	r24, r22
     634:	b8 01       	movw	r22, r16
     636:	b5 d7       	rcall	.+3946   	; 0x15a2 <__divmodhi4>
     638:	80 5d       	subi	r24, 0xD0	; 208
     63a:	89 8f       	std	Y+25, r24	; 0x19
     63c:	02 d4       	rcall	.+2052   	; 0xe42 <_Z6get_Kdv>
     63e:	6b 01       	movw	r12, r22
			f = get_Kd();
     640:	7c 01       	movw	r14, r24
     642:	c0 d4       	rcall	.+2432   	; 0xfc4 <__fixsfsi>
     644:	60 5d       	subi	r22, 0xD0	; 208
     646:	6c 8f       	std	Y+28, r22	; 0x1c
			cur_screen[28] = ((int)f) + '0';
     648:	20 e0       	ldi	r18, 0x00	; 0
     64a:	30 e0       	ldi	r19, 0x00	; 0
     64c:	40 e2       	ldi	r20, 0x20	; 32
     64e:	51 e4       	ldi	r21, 0x41	; 65
			cur_screen[29] = ((int)(10 * f) %10) + '0';
     650:	c7 01       	movw	r24, r14
     652:	b6 01       	movw	r22, r12
     654:	76 d5       	rcall	.+2796   	; 0x1142 <__mulsf3>
     656:	b6 d4       	rcall	.+2412   	; 0xfc4 <__fixsfsi>
     658:	cb 01       	movw	r24, r22
     65a:	b8 01       	movw	r22, r16
     65c:	a2 d7       	rcall	.+3908   	; 0x15a2 <__divmodhi4>
     65e:	80 5d       	subi	r24, 0xD0	; 208
     660:	8d 8f       	std	Y+29, r24	; 0x1d
     662:	20 e0       	ldi	r18, 0x00	; 0
     664:	30 e0       	ldi	r19, 0x00	; 0
     666:	48 ec       	ldi	r20, 0xC8	; 200
     668:	52 e4       	ldi	r21, 0x42	; 66
			cur_screen[30] = ((int)(100 * f) %10) + '0';			
     66a:	c7 01       	movw	r24, r14
     66c:	b6 01       	movw	r22, r12
     66e:	69 d5       	rcall	.+2770   	; 0x1142 <__mulsf3>
     670:	a9 d4       	rcall	.+2386   	; 0xfc4 <__fixsfsi>
     672:	cb 01       	movw	r24, r22
     674:	b8 01       	movw	r22, r16
     676:	95 d7       	rcall	.+3882   	; 0x15a2 <__divmodhi4>
     678:	80 5d       	subi	r24, 0xD0	; 208
     67a:	8e 8f       	std	Y+30, r24	; 0x1e
     67c:	b1 c1       	rjmp	.+866    	; 0x9e0 <_Z11insert_datav+0x4fa>
     67e:	a0 91 f0 01 	lds	r26, 0x01F0	; 0x8001f0 <menu_pos>
     682:	30 e1       	ldi	r19, 0x10	; 16
     684:	a3 9f       	mul	r26, r19
     686:	d0 01       	movw	r26, r0
     688:	11 24       	eor	r1, r1
			break;
     68a:	aa 59       	subi	r26, 0x9A	; 154
		}		
			
		case MENU_PAGE:
			for (int i=0; i<16; i++)
			{
				cur_screen[i] = menu[menu_pos][i];
     68c:	be 4f       	sbci	r27, 0xFE	; 254
     68e:	e7 ef       	ldi	r30, 0xF7	; 247
     690:	f1 e0       	ldi	r31, 0x01	; 1
     692:	27 e0       	ldi	r18, 0x07	; 7
     694:	32 e0       	ldi	r19, 0x02	; 2
     696:	8d 91       	ld	r24, X+
     698:	81 93       	st	Z+, r24
     69a:	e2 17       	cp	r30, r18
     69c:	f3 07       	cpc	r31, r19
     69e:	d9 f7       	brne	.-10     	; 0x696 <_Z11insert_datav+0x1b0>
     6a0:	9f c1       	rjmp	.+830    	; 0x9e0 <_Z11insert_datav+0x4fa>
     6a2:	80 91 f0 01 	lds	r24, 0x01F0	; 0x8001f0 <menu_pos>
     6a6:	82 30       	cpi	r24, 0x02	; 2
			cur_screen[30] = ((int)(100 * f) %10) + '0';			
			break;
		}		
			
		case MENU_PAGE:
			for (int i=0; i<16; i++)
     6a8:	09 f4       	brne	.+2      	; 0x6ac <_Z11insert_datav+0x1c6>
     6aa:	9a c0       	rjmp	.+308    	; 0x7e0 <_Z11insert_datav+0x2fa>
     6ac:	30 f4       	brcc	.+12     	; 0x6ba <_Z11insert_datav+0x1d4>
     6ae:	88 23       	and	r24, r24
				cur_screen[i] = menu[menu_pos][i];
			}
			break;
			
		case INPUT_PAGE:
			switch(menu_pos)
     6b0:	69 f0       	breq	.+26     	; 0x6cc <_Z11insert_datav+0x1e6>
     6b2:	81 30       	cpi	r24, 0x01	; 1
     6b4:	09 f4       	brne	.+2      	; 0x6b8 <_Z11insert_datav+0x1d2>
     6b6:	4f c0       	rjmp	.+158    	; 0x756 <_Z11insert_datav+0x270>
     6b8:	93 c1       	rjmp	.+806    	; 0x9e0 <_Z11insert_datav+0x4fa>
     6ba:	84 30       	cpi	r24, 0x04	; 4
     6bc:	09 f4       	brne	.+2      	; 0x6c0 <_Z11insert_datav+0x1da>
     6be:	1d c1       	rjmp	.+570    	; 0x8fa <_Z11insert_datav+0x414>
     6c0:	08 f4       	brcc	.+2      	; 0x6c4 <_Z11insert_datav+0x1de>
     6c2:	d3 c0       	rjmp	.+422    	; 0x86a <_Z11insert_datav+0x384>
     6c4:	85 30       	cpi	r24, 0x05	; 5
     6c6:	09 f4       	brne	.+2      	; 0x6ca <_Z11insert_datav+0x1e4>
     6c8:	62 c1       	rjmp	.+708    	; 0x98e <_Z11insert_datav+0x4a8>
     6ca:	8a c1       	rjmp	.+788    	; 0x9e0 <_Z11insert_datav+0x4fa>
     6cc:	80 91 ef 01 	lds	r24, 0x01EF	; 0x8001ef <is_edit_enabled>
     6d0:	81 11       	cpse	r24, r1
     6d2:	06 c0       	rjmp	.+12     	; 0x6e0 <_Z11insert_datav+0x1fa>
     6d4:	92 d3       	rcall	.+1828   	; 0xdfa <_Z6get_Kpv>
			{
				//P
				case 0:
				{
					if(!is_edit_enabled)
     6d6:	9b 01       	movw	r18, r22
     6d8:	ac 01       	movw	r20, r24
     6da:	65 e0       	ldi	r22, 0x05	; 5
     6dc:	83 e0       	ldi	r24, 0x03	; 3
						enable_value_edit(3,5,get_Kp());
     6de:	f0 de       	rcall	.-544    	; 0x4c0 <_Z17enable_value_edithhf>
     6e0:	c7 ef       	ldi	r28, 0xF7	; 247
     6e2:	d1 e0       	ldi	r29, 0x01	; 1
     6e4:	8b e4       	ldi	r24, 0x4B	; 75
     6e6:	88 83       	st	Y, r24
     6e8:	80 e7       	ldi	r24, 0x70	; 112
     6ea:	89 83       	std	Y+1, r24	; 0x01
					cur_screen[0] ='K';
     6ec:	8d e3       	ldi	r24, 0x3D	; 61
     6ee:	8a 83       	std	Y+2, r24	; 0x02
     6f0:	c0 90 e6 01 	lds	r12, 0x01E6	; 0x8001e6 <f_source_value>
					cur_screen[1] ='p';
					cur_screen[2] ='=';
     6f4:	d0 90 e7 01 	lds	r13, 0x01E7	; 0x8001e7 <f_source_value+0x1>
					cur_screen[3] = ((int)f_source_value) + '0';
     6f8:	e0 90 e8 01 	lds	r14, 0x01E8	; 0x8001e8 <f_source_value+0x2>
     6fc:	f0 90 e9 01 	lds	r15, 0x01E9	; 0x8001e9 <f_source_value+0x3>
     700:	c7 01       	movw	r24, r14
     702:	b6 01       	movw	r22, r12
     704:	5f d4       	rcall	.+2238   	; 0xfc4 <__fixsfsi>
     706:	60 5d       	subi	r22, 0xD0	; 208
     708:	6b 83       	std	Y+3, r22	; 0x03
     70a:	20 e0       	ldi	r18, 0x00	; 0
     70c:	30 e0       	ldi	r19, 0x00	; 0
					cur_screen[4] = ((int)(10 * f_source_value) %10) + '0';
     70e:	40 e2       	ldi	r20, 0x20	; 32
     710:	51 e4       	ldi	r21, 0x41	; 65
     712:	c7 01       	movw	r24, r14
     714:	b6 01       	movw	r22, r12
     716:	15 d5       	rcall	.+2602   	; 0x1142 <__mulsf3>
     718:	55 d4       	rcall	.+2218   	; 0xfc4 <__fixsfsi>
     71a:	0a e0       	ldi	r16, 0x0A	; 10
     71c:	10 e0       	ldi	r17, 0x00	; 0
     71e:	cb 01       	movw	r24, r22
     720:	b8 01       	movw	r22, r16
     722:	3f d7       	rcall	.+3710   	; 0x15a2 <__divmodhi4>
     724:	80 5d       	subi	r24, 0xD0	; 208
     726:	8c 83       	std	Y+4, r24	; 0x04
     728:	20 e0       	ldi	r18, 0x00	; 0
     72a:	30 e0       	ldi	r19, 0x00	; 0
     72c:	48 ec       	ldi	r20, 0xC8	; 200
     72e:	52 e4       	ldi	r21, 0x42	; 66
					cur_screen[5] = ((int)(100 * f_source_value) %10) + '0';
     730:	c7 01       	movw	r24, r14
     732:	b6 01       	movw	r22, r12
     734:	06 d5       	rcall	.+2572   	; 0x1142 <__mulsf3>
     736:	46 d4       	rcall	.+2188   	; 0xfc4 <__fixsfsi>
     738:	cb 01       	movw	r24, r22
     73a:	b8 01       	movw	r22, r16
     73c:	32 d7       	rcall	.+3684   	; 0x15a2 <__divmodhi4>
     73e:	80 5d       	subi	r24, 0xD0	; 208
     740:	8d 83       	std	Y+5, r24	; 0x05
     742:	ed ef       	ldi	r30, 0xFD	; 253
     744:	f1 e0       	ldi	r31, 0x01	; 1
     746:	27 e0       	ldi	r18, 0x07	; 7
     748:	32 e0       	ldi	r19, 0x02	; 2
     74a:	80 e2       	ldi	r24, 0x20	; 32
     74c:	81 93       	st	Z+, r24
     74e:	e2 17       	cp	r30, r18
     750:	f3 07       	cpc	r31, r19
     752:	e1 f7       	brne	.-8      	; 0x74c <_Z11insert_datav+0x266>
     754:	45 c1       	rjmp	.+650    	; 0x9e0 <_Z11insert_datav+0x4fa>
					for(int i =6; i<16; i++)
						cur_screen[i] = ' ';					
     756:	80 91 ef 01 	lds	r24, 0x01EF	; 0x8001ef <is_edit_enabled>
					cur_screen[1] ='p';
					cur_screen[2] ='=';
					cur_screen[3] = ((int)f_source_value) + '0';
					cur_screen[4] = ((int)(10 * f_source_value) %10) + '0';
					cur_screen[5] = ((int)(100 * f_source_value) %10) + '0';
					for(int i =6; i<16; i++)
     75a:	81 11       	cpse	r24, r1
     75c:	06 c0       	rjmp	.+12     	; 0x76a <_Z11insert_datav+0x284>
     75e:	5f d3       	rcall	.+1726   	; 0xe1e <_Z6get_Kiv>
					break;
				}
				//I
				case 1:
					{
						if(!is_edit_enabled)
     760:	9b 01       	movw	r18, r22
     762:	ac 01       	movw	r20, r24
     764:	65 e0       	ldi	r22, 0x05	; 5
     766:	83 e0       	ldi	r24, 0x03	; 3
							enable_value_edit(3,5,get_Ki());
     768:	ab de       	rcall	.-682    	; 0x4c0 <_Z17enable_value_edithhf>
     76a:	c7 ef       	ldi	r28, 0xF7	; 247
     76c:	d1 e0       	ldi	r29, 0x01	; 1
     76e:	8b e4       	ldi	r24, 0x4B	; 75
     770:	88 83       	st	Y, r24
     772:	89 e6       	ldi	r24, 0x69	; 105
						cur_screen[0] ='K';
     774:	89 83       	std	Y+1, r24	; 0x01
     776:	8d e3       	ldi	r24, 0x3D	; 61
     778:	8a 83       	std	Y+2, r24	; 0x02
						cur_screen[1] ='i';
     77a:	c0 90 e6 01 	lds	r12, 0x01E6	; 0x8001e6 <f_source_value>
						cur_screen[2] ='=';
     77e:	d0 90 e7 01 	lds	r13, 0x01E7	; 0x8001e7 <f_source_value+0x1>
						cur_screen[3] = ((int)f_source_value) + '0';
     782:	e0 90 e8 01 	lds	r14, 0x01E8	; 0x8001e8 <f_source_value+0x2>
     786:	f0 90 e9 01 	lds	r15, 0x01E9	; 0x8001e9 <f_source_value+0x3>
     78a:	c7 01       	movw	r24, r14
     78c:	b6 01       	movw	r22, r12
     78e:	1a d4       	rcall	.+2100   	; 0xfc4 <__fixsfsi>
     790:	60 5d       	subi	r22, 0xD0	; 208
     792:	6b 83       	std	Y+3, r22	; 0x03
     794:	20 e0       	ldi	r18, 0x00	; 0
     796:	30 e0       	ldi	r19, 0x00	; 0
						cur_screen[4] = ((int)(10 * f_source_value) %10) + '0';
     798:	40 e2       	ldi	r20, 0x20	; 32
     79a:	51 e4       	ldi	r21, 0x41	; 65
     79c:	c7 01       	movw	r24, r14
     79e:	b6 01       	movw	r22, r12
     7a0:	d0 d4       	rcall	.+2464   	; 0x1142 <__mulsf3>
     7a2:	10 d4       	rcall	.+2080   	; 0xfc4 <__fixsfsi>
     7a4:	0a e0       	ldi	r16, 0x0A	; 10
     7a6:	10 e0       	ldi	r17, 0x00	; 0
     7a8:	cb 01       	movw	r24, r22
     7aa:	b8 01       	movw	r22, r16
     7ac:	fa d6       	rcall	.+3572   	; 0x15a2 <__divmodhi4>
     7ae:	80 5d       	subi	r24, 0xD0	; 208
     7b0:	8c 83       	std	Y+4, r24	; 0x04
     7b2:	20 e0       	ldi	r18, 0x00	; 0
     7b4:	30 e0       	ldi	r19, 0x00	; 0
     7b6:	48 ec       	ldi	r20, 0xC8	; 200
						cur_screen[5] = ((int)(100 * f_source_value) %10) + '0';
     7b8:	52 e4       	ldi	r21, 0x42	; 66
     7ba:	c7 01       	movw	r24, r14
     7bc:	b6 01       	movw	r22, r12
     7be:	c1 d4       	rcall	.+2434   	; 0x1142 <__mulsf3>
     7c0:	01 d4       	rcall	.+2050   	; 0xfc4 <__fixsfsi>
     7c2:	cb 01       	movw	r24, r22
     7c4:	b8 01       	movw	r22, r16
     7c6:	ed d6       	rcall	.+3546   	; 0x15a2 <__divmodhi4>
     7c8:	80 5d       	subi	r24, 0xD0	; 208
     7ca:	8d 83       	std	Y+5, r24	; 0x05
     7cc:	ed ef       	ldi	r30, 0xFD	; 253
     7ce:	f1 e0       	ldi	r31, 0x01	; 1
     7d0:	27 e0       	ldi	r18, 0x07	; 7
     7d2:	32 e0       	ldi	r19, 0x02	; 2
     7d4:	80 e2       	ldi	r24, 0x20	; 32
     7d6:	81 93       	st	Z+, r24
     7d8:	e2 17       	cp	r30, r18
     7da:	f3 07       	cpc	r31, r19
     7dc:	e1 f7       	brne	.-8      	; 0x7d6 <_Z11insert_datav+0x2f0>
						for(int i =6; i<16; i++)
							cur_screen[i] = ' ';
     7de:	00 c1       	rjmp	.+512    	; 0x9e0 <_Z11insert_datav+0x4fa>
     7e0:	80 91 ef 01 	lds	r24, 0x01EF	; 0x8001ef <is_edit_enabled>
						cur_screen[1] ='i';
						cur_screen[2] ='=';
						cur_screen[3] = ((int)f_source_value) + '0';
						cur_screen[4] = ((int)(10 * f_source_value) %10) + '0';
						cur_screen[5] = ((int)(100 * f_source_value) %10) + '0';
						for(int i =6; i<16; i++)
     7e4:	81 11       	cpse	r24, r1
						break;
					}
				//D
				case 2:
					{
						if(!is_edit_enabled)
     7e6:	06 c0       	rjmp	.+12     	; 0x7f4 <_Z11insert_datav+0x30e>
     7e8:	2c d3       	rcall	.+1624   	; 0xe42 <_Z6get_Kdv>
     7ea:	9b 01       	movw	r18, r22
							enable_value_edit(3,5,get_Kd());
     7ec:	ac 01       	movw	r20, r24
     7ee:	65 e0       	ldi	r22, 0x05	; 5
     7f0:	83 e0       	ldi	r24, 0x03	; 3
     7f2:	66 de       	rcall	.-820    	; 0x4c0 <_Z17enable_value_edithhf>
     7f4:	c7 ef       	ldi	r28, 0xF7	; 247
     7f6:	d1 e0       	ldi	r29, 0x01	; 1
     7f8:	8b e4       	ldi	r24, 0x4B	; 75
     7fa:	88 83       	st	Y, r24
						cur_screen[0] ='K';
     7fc:	84 e6       	ldi	r24, 0x64	; 100
     7fe:	89 83       	std	Y+1, r24	; 0x01
						cur_screen[1] ='d';
     800:	8d e3       	ldi	r24, 0x3D	; 61
						cur_screen[2] ='=';
     802:	8a 83       	std	Y+2, r24	; 0x02
     804:	c0 90 e6 01 	lds	r12, 0x01E6	; 0x8001e6 <f_source_value>
						cur_screen[3] = ((int)f_source_value) + '0';
     808:	d0 90 e7 01 	lds	r13, 0x01E7	; 0x8001e7 <f_source_value+0x1>
     80c:	e0 90 e8 01 	lds	r14, 0x01E8	; 0x8001e8 <f_source_value+0x2>
     810:	f0 90 e9 01 	lds	r15, 0x01E9	; 0x8001e9 <f_source_value+0x3>
     814:	c7 01       	movw	r24, r14
     816:	b6 01       	movw	r22, r12
     818:	d5 d3       	rcall	.+1962   	; 0xfc4 <__fixsfsi>
     81a:	60 5d       	subi	r22, 0xD0	; 208
     81c:	6b 83       	std	Y+3, r22	; 0x03
     81e:	20 e0       	ldi	r18, 0x00	; 0
						cur_screen[4] = ((int)(10 * f_source_value) %10) + '0';
     820:	30 e0       	ldi	r19, 0x00	; 0
     822:	40 e2       	ldi	r20, 0x20	; 32
     824:	51 e4       	ldi	r21, 0x41	; 65
     826:	c7 01       	movw	r24, r14
     828:	b6 01       	movw	r22, r12
     82a:	8b d4       	rcall	.+2326   	; 0x1142 <__mulsf3>
     82c:	cb d3       	rcall	.+1942   	; 0xfc4 <__fixsfsi>
     82e:	0a e0       	ldi	r16, 0x0A	; 10
     830:	10 e0       	ldi	r17, 0x00	; 0
     832:	cb 01       	movw	r24, r22
     834:	b8 01       	movw	r22, r16
     836:	b5 d6       	rcall	.+3434   	; 0x15a2 <__divmodhi4>
     838:	80 5d       	subi	r24, 0xD0	; 208
     83a:	8c 83       	std	Y+4, r24	; 0x04
     83c:	20 e0       	ldi	r18, 0x00	; 0
     83e:	30 e0       	ldi	r19, 0x00	; 0
     840:	48 ec       	ldi	r20, 0xC8	; 200
						cur_screen[5] = ((int)(100 * f_source_value) %10) + '0';
     842:	52 e4       	ldi	r21, 0x42	; 66
     844:	c7 01       	movw	r24, r14
     846:	b6 01       	movw	r22, r12
     848:	7c d4       	rcall	.+2296   	; 0x1142 <__mulsf3>
     84a:	bc d3       	rcall	.+1912   	; 0xfc4 <__fixsfsi>
     84c:	cb 01       	movw	r24, r22
     84e:	b8 01       	movw	r22, r16
     850:	a8 d6       	rcall	.+3408   	; 0x15a2 <__divmodhi4>
     852:	80 5d       	subi	r24, 0xD0	; 208
     854:	8d 83       	std	Y+5, r24	; 0x05
     856:	ed ef       	ldi	r30, 0xFD	; 253
     858:	f1 e0       	ldi	r31, 0x01	; 1
     85a:	27 e0       	ldi	r18, 0x07	; 7
     85c:	32 e0       	ldi	r19, 0x02	; 2
     85e:	80 e2       	ldi	r24, 0x20	; 32
     860:	81 93       	st	Z+, r24
     862:	e2 17       	cp	r30, r18
     864:	f3 07       	cpc	r31, r19
     866:	e1 f7       	brne	.-8      	; 0x860 <_Z11insert_datav+0x37a>
     868:	bb c0       	rjmp	.+374    	; 0x9e0 <_Z11insert_datav+0x4fa>
						for(int i =6; i<16; i++)
							cur_screen[i] = ' ';
     86a:	80 91 ef 01 	lds	r24, 0x01EF	; 0x8001ef <is_edit_enabled>
						cur_screen[1] ='d';
						cur_screen[2] ='=';
						cur_screen[3] = ((int)f_source_value) + '0';
						cur_screen[4] = ((int)(10 * f_source_value) %10) + '0';
						cur_screen[5] = ((int)(100 * f_source_value) %10) + '0';
						for(int i =6; i<16; i++)
     86e:	81 11       	cpse	r24, r1
     870:	05 c0       	rjmp	.+10     	; 0x87c <_Z11insert_datav+0x396>
     872:	f9 d2       	rcall	.+1522   	; 0xe66 <_Z15get_target_tempv>
     874:	48 2f       	mov	r20, r24
						break;
					}					
				//t targ	
				case 3:
					{
						if(!is_edit_enabled)
     876:	6c e0       	ldi	r22, 0x0C	; 12
     878:	8a e0       	ldi	r24, 0x0A	; 10
     87a:	2f de       	rcall	.-930    	; 0x4da <_Z17enable_value_edithhh>
     87c:	e7 ef       	ldi	r30, 0xF7	; 247
							enable_value_edit(10,12,get_target_temp());
     87e:	f1 e0       	ldi	r31, 0x01	; 1
     880:	84 e7       	ldi	r24, 0x74	; 116
     882:	80 83       	st	Z, r24
     884:	98 e2       	ldi	r25, 0x28	; 40
     886:	91 83       	std	Z+1, r25	; 0x01
     888:	82 83       	std	Z+2, r24	; 0x02
     88a:	91 e6       	ldi	r25, 0x61	; 97
						cur_screen[0] ='t';
     88c:	93 83       	std	Z+3, r25	; 0x03
     88e:	92 e7       	ldi	r25, 0x72	; 114
     890:	94 83       	std	Z+4, r25	; 0x04
     892:	97 e6       	ldi	r25, 0x67	; 103
						cur_screen[1] ='(';
     894:	95 83       	std	Z+5, r25	; 0x05
     896:	95 e6       	ldi	r25, 0x65	; 101
						cur_screen[2] ='t';
     898:	96 83       	std	Z+6, r25	; 0x06
						cur_screen[3] ='a';
     89a:	87 83       	std	Z+7, r24	; 0x07
     89c:	89 e2       	ldi	r24, 0x29	; 41
						cur_screen[4] ='r';
     89e:	80 87       	std	Z+8, r24	; 0x08
     8a0:	9d e3       	ldi	r25, 0x3D	; 61
						cur_screen[5] ='g';
     8a2:	91 87       	std	Z+9, r25	; 0x09
     8a4:	90 91 ea 01 	lds	r25, 0x01EA	; 0x8001ea <i_source_value>
						cur_screen[6] ='e';
     8a8:	98 9f       	mul	r25, r24
						cur_screen[7] ='t';
     8aa:	81 2d       	mov	r24, r1
						cur_screen[8] =')';
     8ac:	11 24       	eor	r1, r1
						cur_screen[9] ='=';
     8ae:	82 95       	swap	r24
     8b0:	8f 70       	andi	r24, 0x0F	; 15
						cur_screen[10] = (i_source_value/100) + '0';
     8b2:	20 e3       	ldi	r18, 0x30	; 48
     8b4:	28 0f       	add	r18, r24
     8b6:	22 87       	std	Z+10, r18	; 0x0a
     8b8:	29 2f       	mov	r18, r25
     8ba:	34 e6       	ldi	r19, 0x64	; 100
     8bc:	83 9f       	mul	r24, r19
     8be:	20 19       	sub	r18, r0
     8c0:	11 24       	eor	r1, r1
     8c2:	8d ec       	ldi	r24, 0xCD	; 205
						cur_screen[11] = ((i_source_value%100)/10) + '0';
     8c4:	28 9f       	mul	r18, r24
     8c6:	21 2d       	mov	r18, r1
     8c8:	11 24       	eor	r1, r1
     8ca:	26 95       	lsr	r18
     8cc:	26 95       	lsr	r18
     8ce:	26 95       	lsr	r18
     8d0:	20 5d       	subi	r18, 0xD0	; 208
     8d2:	23 87       	std	Z+11, r18	; 0x0b
     8d4:	98 9f       	mul	r25, r24
     8d6:	81 2d       	mov	r24, r1
     8d8:	11 24       	eor	r1, r1
     8da:	86 95       	lsr	r24
     8dc:	86 95       	lsr	r24
     8de:	86 95       	lsr	r24
						cur_screen[12] = (i_source_value%10) + '0';
     8e0:	88 0f       	add	r24, r24
     8e2:	28 2f       	mov	r18, r24
     8e4:	22 0f       	add	r18, r18
     8e6:	22 0f       	add	r18, r18
     8e8:	82 0f       	add	r24, r18
     8ea:	98 1b       	sub	r25, r24
     8ec:	90 5d       	subi	r25, 0xD0	; 208
     8ee:	94 87       	std	Z+12, r25	; 0x0c
     8f0:	80 e2       	ldi	r24, 0x20	; 32
     8f2:	85 87       	std	Z+13, r24	; 0x0d
     8f4:	86 87       	std	Z+14, r24	; 0x0e
     8f6:	87 87       	std	Z+15, r24	; 0x0f
     8f8:	73 c0       	rjmp	.+230    	; 0x9e0 <_Z11insert_datav+0x4fa>
     8fa:	80 91 ef 01 	lds	r24, 0x01EF	; 0x8001ef <is_edit_enabled>
						for(int i =13; i<16; i++)
							cur_screen[i] = ' ';						
     8fe:	81 11       	cpse	r24, r1
     900:	05 c0       	rjmp	.+10     	; 0x90c <_Z11insert_datav+0x426>
     902:	b7 d2       	rcall	.+1390   	; 0xe72 <_Z17get_shutdown_tempv>
     904:	48 2f       	mov	r20, r24
						break;
					}
				//t shutdown
				case 4:
					{
						if(!is_edit_enabled)
     906:	6e e0       	ldi	r22, 0x0E	; 14
     908:	8c e0       	ldi	r24, 0x0C	; 12
     90a:	e7 dd       	rcall	.-1074   	; 0x4da <_Z17enable_value_edithhh>
     90c:	e7 ef       	ldi	r30, 0xF7	; 247
							enable_value_edit(12,14,get_shutdown_temp());
     90e:	f1 e0       	ldi	r31, 0x01	; 1
     910:	84 e7       	ldi	r24, 0x74	; 116
     912:	80 83       	st	Z, r24
     914:	98 e2       	ldi	r25, 0x28	; 40
     916:	91 83       	std	Z+1, r25	; 0x01
     918:	93 e7       	ldi	r25, 0x73	; 115
     91a:	92 83       	std	Z+2, r25	; 0x02
						cur_screen[0] ='t';
     91c:	98 e6       	ldi	r25, 0x68	; 104
     91e:	93 83       	std	Z+3, r25	; 0x03
     920:	95 e7       	ldi	r25, 0x75	; 117
     922:	94 83       	std	Z+4, r25	; 0x04
						cur_screen[1] ='(';
     924:	85 83       	std	Z+5, r24	; 0x05
     926:	24 e6       	ldi	r18, 0x64	; 100
						cur_screen[2] ='s';
     928:	26 83       	std	Z+6, r18	; 0x06
     92a:	8f e6       	ldi	r24, 0x6F	; 111
						cur_screen[3] ='h';
     92c:	87 83       	std	Z+7, r24	; 0x07
     92e:	87 e7       	ldi	r24, 0x77	; 119
						cur_screen[4] ='u';
     930:	80 87       	std	Z+8, r24	; 0x08
     932:	8e e6       	ldi	r24, 0x6E	; 110
						cur_screen[5] ='t';
     934:	81 87       	std	Z+9, r24	; 0x09
						cur_screen[6] ='d';
     936:	89 e2       	ldi	r24, 0x29	; 41
     938:	82 87       	std	Z+10, r24	; 0x0a
						cur_screen[7] ='o';
     93a:	9d e3       	ldi	r25, 0x3D	; 61
						cur_screen[8] ='w';
     93c:	93 87       	std	Z+11, r25	; 0x0b
     93e:	90 91 ea 01 	lds	r25, 0x01EA	; 0x8001ea <i_source_value>
						cur_screen[9] ='n';
						cur_screen[10] =')';
     942:	98 9f       	mul	r25, r24
     944:	81 2d       	mov	r24, r1
						cur_screen[11] ='=';
     946:	11 24       	eor	r1, r1
     948:	82 95       	swap	r24
						cur_screen[12] = (i_source_value/100) + '0';
     94a:	8f 70       	andi	r24, 0x0F	; 15
     94c:	30 e3       	ldi	r19, 0x30	; 48
     94e:	38 0f       	add	r19, r24
     950:	34 87       	std	Z+12, r19	; 0x0c
     952:	39 2f       	mov	r19, r25
     954:	82 9f       	mul	r24, r18
     956:	30 19       	sub	r19, r0
     958:	11 24       	eor	r1, r1
     95a:	8d ec       	ldi	r24, 0xCD	; 205
     95c:	38 9f       	mul	r19, r24
						cur_screen[13] = ((i_source_value%100)/10) + '0';
     95e:	21 2d       	mov	r18, r1
     960:	11 24       	eor	r1, r1
     962:	26 95       	lsr	r18
     964:	26 95       	lsr	r18
     966:	26 95       	lsr	r18
     968:	20 5d       	subi	r18, 0xD0	; 208
     96a:	25 87       	std	Z+13, r18	; 0x0d
     96c:	98 9f       	mul	r25, r24
     96e:	81 2d       	mov	r24, r1
     970:	11 24       	eor	r1, r1
     972:	86 95       	lsr	r24
     974:	86 95       	lsr	r24
     976:	86 95       	lsr	r24
						cur_screen[14] = (i_source_value%10) + '0';
     978:	88 0f       	add	r24, r24
     97a:	28 2f       	mov	r18, r24
     97c:	22 0f       	add	r18, r18
     97e:	22 0f       	add	r18, r18
     980:	82 0f       	add	r24, r18
     982:	98 1b       	sub	r25, r24
     984:	90 5d       	subi	r25, 0xD0	; 208
     986:	96 87       	std	Z+14, r25	; 0x0e
     988:	80 e2       	ldi	r24, 0x20	; 32
     98a:	87 87       	std	Z+15, r24	; 0x0f
     98c:	29 c0       	rjmp	.+82     	; 0x9e0 <_Z11insert_datav+0x4fa>
     98e:	80 91 ef 01 	lds	r24, 0x01EF	; 0x8001ef <is_edit_enabled>
     992:	81 11       	cpse	r24, r1
						cur_screen[15] = ' ';
     994:	05 c0       	rjmp	.+10     	; 0x9a0 <_Z11insert_datav+0x4ba>
     996:	73 d2       	rcall	.+1254   	; 0xe7e <_Z16get_active_relayv>
						break;
     998:	48 2f       	mov	r20, r24
					}
				//relay 1..3
				case 5:
					if(!is_edit_enabled)
     99a:	6f e0       	ldi	r22, 0x0F	; 15
     99c:	8f e0       	ldi	r24, 0x0F	; 15
     99e:	9d dd       	rcall	.-1222   	; 0x4da <_Z17enable_value_edithhh>
     9a0:	e7 ef       	ldi	r30, 0xF7	; 247
						enable_value_edit(15,15,get_active_relay());
     9a2:	f1 e0       	ldi	r31, 0x01	; 1
     9a4:	91 e6       	ldi	r25, 0x61	; 97
     9a6:	90 83       	st	Z, r25
     9a8:	83 e6       	ldi	r24, 0x63	; 99
     9aa:	81 83       	std	Z+1, r24	; 0x01
     9ac:	84 e7       	ldi	r24, 0x74	; 116
     9ae:	82 83       	std	Z+2, r24	; 0x02
					cur_screen[0] ='a';
     9b0:	89 e6       	ldi	r24, 0x69	; 105
     9b2:	83 83       	std	Z+3, r24	; 0x03
     9b4:	86 e7       	ldi	r24, 0x76	; 118
     9b6:	84 83       	std	Z+4, r24	; 0x04
					cur_screen[1] ='c';
     9b8:	25 e6       	ldi	r18, 0x65	; 101
     9ba:	25 83       	std	Z+5, r18	; 0x05
					cur_screen[2] ='t';
     9bc:	80 e2       	ldi	r24, 0x20	; 32
     9be:	86 83       	std	Z+6, r24	; 0x06
					cur_screen[3] ='i';
     9c0:	32 e7       	ldi	r19, 0x72	; 114
     9c2:	37 83       	std	Z+7, r19	; 0x07
					cur_screen[4] ='v';
     9c4:	20 87       	std	Z+8, r18	; 0x08
     9c6:	2c e6       	ldi	r18, 0x6C	; 108
					cur_screen[5] ='e';
     9c8:	21 87       	std	Z+9, r18	; 0x09
     9ca:	92 87       	std	Z+10, r25	; 0x0a
					cur_screen[6] =' ';
     9cc:	99 e7       	ldi	r25, 0x79	; 121
     9ce:	93 87       	std	Z+11, r25	; 0x0b
					cur_screen[7] ='r';
     9d0:	84 87       	std	Z+12, r24	; 0x0c
     9d2:	9d e3       	ldi	r25, 0x3D	; 61
					cur_screen[8] ='e';
     9d4:	95 87       	std	Z+13, r25	; 0x0d
					cur_screen[9] ='l';
     9d6:	86 87       	std	Z+14, r24	; 0x0e
     9d8:	80 91 ea 01 	lds	r24, 0x01EA	; 0x8001ea <i_source_value>
					cur_screen[10] ='a';
					cur_screen[11] ='y';
     9dc:	80 5d       	subi	r24, 0xD0	; 208
     9de:	87 87       	std	Z+15, r24	; 0x0f
					cur_screen[12] =' ';
     9e0:	df 91       	pop	r29
					cur_screen[13] ='=';
     9e2:	cf 91       	pop	r28
     9e4:	1f 91       	pop	r17
					cur_screen[14] =' ';
     9e6:	0f 91       	pop	r16
					cur_screen[15] = '0' + i_source_value;
     9e8:	ff 90       	pop	r15
     9ea:	ef 90       	pop	r14
     9ec:	df 90       	pop	r13
     9ee:	cf 90       	pop	r12
					break;
			}
			break;
	}
}
     9f0:	08 95       	ret

000009f2 <_Z9menu_initv>:
     9f2:	10 92 ef 01 	sts	0x01EF, r1	; 0x8001ef <is_edit_enabled>
     9f6:	86 e4       	ldi	r24, 0x46	; 70
     9f8:	91 e0       	ldi	r25, 0x01	; 1
     9fa:	16 dd       	rcall	.-1492   	; 0x428 <_Z19set_template_screenPh>
     9fc:	10 92 f6 01 	sts	0x01F6, r1	; 0x8001f6 <page_type>
     a00:	80 e0       	ldi	r24, 0x00	; 0
	//курсор
	is_edit_enabled = false;
	set_template_screen(MAIN_SCREEN);
	page_type = MAIN_PAGE;
	set_button_actions(page_type);	
	insert_data();
     a02:	1d dd       	rcall	.-1478   	; 0x43e <_Z18set_button_actionsh>
     a04:	70 cd       	rjmp	.-1312   	; 0x4e6 <_Z11insert_datav>
     a06:	08 95       	ret

00000a08 <_Z18disable_value_editv>:
	set_cursor_pos(cur_pos);
}

void disable_value_edit(void)
{
	is_edit_enabled = false;
     a08:	10 92 ef 01 	sts	0x01EF, r1	; 0x8001ef <is_edit_enabled>
	disable_cursor();
     a0c:	f3 cc       	rjmp	.-1562   	; 0x3f4 <_Z14disable_cursorv>
     a0e:	08 95       	ret

00000a10 <_Z14perform_actionh>:
	}
}

//выполнение привязанного действия
void perform_action(uint8_t action)
{
     a10:	cf 92       	push	r12
     a12:	df 92       	push	r13
     a14:	ef 92       	push	r14
     a16:	ff 92       	push	r15
	switch(action)
     a18:	90 e0       	ldi	r25, 0x00	; 0
     a1a:	8a 30       	cpi	r24, 0x0A	; 10
     a1c:	91 05       	cpc	r25, r1
     a1e:	08 f0       	brcs	.+2      	; 0xa22 <_Z14perform_actionh+0x12>
     a20:	33 c1       	rjmp	.+614    	; 0xc88 <_Z14perform_actionh+0x278>
     a22:	fc 01       	movw	r30, r24
     a24:	ea 5b       	subi	r30, 0xBA	; 186
     a26:	ff 4f       	sbci	r31, 0xFF	; 255
     a28:	cf c5       	rjmp	.+2974   	; 0x15c8 <__tablejump2__>
	{
		//открыть страницу меню
		case BTN_ACTION_OPEN_MENU:
			if(is_edit_enabled) disable_value_edit();
     a2a:	80 91 ef 01 	lds	r24, 0x01EF	; 0x8001ef <is_edit_enabled>
     a2e:	81 11       	cpse	r24, r1
     a30:	eb df       	rcall	.-42     	; 0xa08 <_Z18disable_value_editv>
			set_template_screen(MENU_SCREEN);
     a32:	86 e2       	ldi	r24, 0x26	; 38
     a34:	91 e0       	ldi	r25, 0x01	; 1
     a36:	f8 dc       	rcall	.-1552   	; 0x428 <_Z19set_template_screenPh>
			page_type = MENU_PAGE;
     a38:	81 e0       	ldi	r24, 0x01	; 1
     a3a:	80 93 f6 01 	sts	0x01F6, r24	; 0x8001f6 <page_type>
			menu_pos = 0;
			set_button_actions(page_type);
     a3e:	10 92 f0 01 	sts	0x01F0, r1	; 0x8001f0 <menu_pos>
			insert_data();
     a42:	fd dc       	rcall	.-1542   	; 0x43e <_Z18set_button_actionsh>
		break;
     a44:	50 dd       	rcall	.-1376   	; 0x4e6 <_Z11insert_datav>
		//закрыть страницу меню (открыть главную)
		case BTN_ACTION_CLOSE_MENU:
			set_template_screen(MAIN_SCREEN);
     a46:	20 c1       	rjmp	.+576    	; 0xc88 <_Z14perform_actionh+0x278>
     a48:	86 e4       	ldi	r24, 0x46	; 70
			page_type = MAIN_PAGE;
     a4a:	91 e0       	ldi	r25, 0x01	; 1
			set_button_actions(page_type);
     a4c:	ed dc       	rcall	.-1574   	; 0x428 <_Z19set_template_screenPh>
     a4e:	10 92 f6 01 	sts	0x01F6, r1	; 0x8001f6 <page_type>
			insert_data();
     a52:	80 e0       	ldi	r24, 0x00	; 0
     a54:	f4 dc       	rcall	.-1560   	; 0x43e <_Z18set_button_actionsh>
		break;
     a56:	47 dd       	rcall	.-1394   	; 0x4e6 <_Z11insert_datav>
		//запомнить измененное значение
		case BTN_ACTION_ACCEPT_VALUE:
		{
			disable_value_edit();
     a58:	17 c1       	rjmp	.+558    	; 0xc88 <_Z14perform_actionh+0x278>
     a5a:	d6 df       	rcall	.-84     	; 0xa08 <_Z18disable_value_editv>
			switch(menu_pos)
     a5c:	80 91 f0 01 	lds	r24, 0x01F0	; 0x8001f0 <menu_pos>
     a60:	82 30       	cpi	r24, 0x02	; 2
     a62:	01 f1       	breq	.+64     	; 0xaa4 <_Z14perform_actionh+0x94>
     a64:	28 f4       	brcc	.+10     	; 0xa70 <_Z14perform_actionh+0x60>
     a66:	88 23       	and	r24, r24
     a68:	49 f0       	breq	.+18     	; 0xa7c <_Z14perform_actionh+0x6c>
     a6a:	81 30       	cpi	r24, 0x01	; 1
     a6c:	89 f0       	breq	.+34     	; 0xa90 <_Z14perform_actionh+0x80>
     a6e:	2f c0       	rjmp	.+94     	; 0xace <_Z14perform_actionh+0xbe>
     a70:	84 30       	cpi	r24, 0x04	; 4
     a72:	31 f1       	breq	.+76     	; 0xac0 <_Z14perform_actionh+0xb0>
     a74:	08 f1       	brcs	.+66     	; 0xab8 <_Z14perform_actionh+0xa8>
     a76:	85 30       	cpi	r24, 0x05	; 5
     a78:	39 f1       	breq	.+78     	; 0xac8 <_Z14perform_actionh+0xb8>
			{
				//P
				case 0:
				{
					set_Kp(f_source_value);
     a7a:	29 c0       	rjmp	.+82     	; 0xace <_Z14perform_actionh+0xbe>
     a7c:	60 91 e6 01 	lds	r22, 0x01E6	; 0x8001e6 <f_source_value>
     a80:	70 91 e7 01 	lds	r23, 0x01E7	; 0x8001e7 <f_source_value+0x1>
     a84:	80 91 e8 01 	lds	r24, 0x01E8	; 0x8001e8 <f_source_value+0x2>
     a88:	90 91 e9 01 	lds	r25, 0x01E9	; 0x8001e9 <f_source_value+0x3>
					break;
     a8c:	bf d1       	rcall	.+894    	; 0xe0c <_Z6set_Kpf>
				}
				//I
				case 1:
					{
						set_Ki(f_source_value);
     a8e:	1f c0       	rjmp	.+62     	; 0xace <_Z14perform_actionh+0xbe>
     a90:	60 91 e6 01 	lds	r22, 0x01E6	; 0x8001e6 <f_source_value>
     a94:	70 91 e7 01 	lds	r23, 0x01E7	; 0x8001e7 <f_source_value+0x1>
     a98:	80 91 e8 01 	lds	r24, 0x01E8	; 0x8001e8 <f_source_value+0x2>
     a9c:	90 91 e9 01 	lds	r25, 0x01E9	; 0x8001e9 <f_source_value+0x3>
						break;
     aa0:	c7 d1       	rcall	.+910    	; 0xe30 <_Z6set_Kif>
					}
				//D
				case 2:
					{
						set_Kd(f_source_value);
     aa2:	15 c0       	rjmp	.+42     	; 0xace <_Z14perform_actionh+0xbe>
     aa4:	60 91 e6 01 	lds	r22, 0x01E6	; 0x8001e6 <f_source_value>
     aa8:	70 91 e7 01 	lds	r23, 0x01E7	; 0x8001e7 <f_source_value+0x1>
     aac:	80 91 e8 01 	lds	r24, 0x01E8	; 0x8001e8 <f_source_value+0x2>
     ab0:	90 91 e9 01 	lds	r25, 0x01E9	; 0x8001e9 <f_source_value+0x3>
						break;
					}					
				//t targ	
				case 3:
					{
						set_target_temp(i_source_value);
     ab4:	cf d1       	rcall	.+926    	; 0xe54 <_Z6set_Kdf>
     ab6:	0b c0       	rjmp	.+22     	; 0xace <_Z14perform_actionh+0xbe>
     ab8:	80 91 ea 01 	lds	r24, 0x01EA	; 0x8001ea <i_source_value>
						break;
					}
				//t shutdown
				case 4:
					{
						set_shutdown_temp(i_source_value);
     abc:	d7 d1       	rcall	.+942    	; 0xe6c <_Z15set_target_temph>
     abe:	07 c0       	rjmp	.+14     	; 0xace <_Z14perform_actionh+0xbe>
						break;
     ac0:	80 91 ea 01 	lds	r24, 0x01EA	; 0x8001ea <i_source_value>
					}
				//relay 1..3
				case 5:
						set_active_relay(i_source_value);
     ac4:	d9 d1       	rcall	.+946    	; 0xe78 <_Z17set_shutdown_temph>
     ac6:	03 c0       	rjmp	.+6      	; 0xace <_Z14perform_actionh+0xbe>
     ac8:	80 91 ea 01 	lds	r24, 0x01EA	; 0x8001ea <i_source_value>
					break;
				}
			set_template_screen(MENU_SCREEN);
     acc:	db d1       	rcall	.+950    	; 0xe84 <_Z16set_active_relayh>
     ace:	86 e2       	ldi	r24, 0x26	; 38
     ad0:	91 e0       	ldi	r25, 0x01	; 1
			page_type = MENU_PAGE;
     ad2:	aa dc       	rcall	.-1708   	; 0x428 <_Z19set_template_screenPh>
     ad4:	81 e0       	ldi	r24, 0x01	; 1
			set_button_actions(page_type);
     ad6:	80 93 f6 01 	sts	0x01F6, r24	; 0x8001f6 <page_type>
			insert_data();
     ada:	b1 dc       	rcall	.-1694   	; 0x43e <_Z18set_button_actionsh>
     adc:	04 dd       	rcall	.-1528   	; 0x4e6 <_Z11insert_datav>
			break;
     ade:	d4 c0       	rjmp	.+424    	; 0xc88 <_Z14perform_actionh+0x278>
		}
		//движение по меню вниз
		case BTN_ACTION_MENU_DOWN:
			menu_pos++;
     ae0:	80 91 f0 01 	lds	r24, 0x01F0	; 0x8001f0 <menu_pos>
     ae4:	8f 5f       	subi	r24, 0xFF	; 255
			if(menu_pos==6)
     ae6:	86 30       	cpi	r24, 0x06	; 6
     ae8:	19 f0       	breq	.+6      	; 0xaf0 <_Z14perform_actionh+0xe0>
			insert_data();
			break;
		}
		//движение по меню вниз
		case BTN_ACTION_MENU_DOWN:
			menu_pos++;
     aea:	80 93 f0 01 	sts	0x01F0, r24	; 0x8001f0 <menu_pos>
			if(menu_pos==6)
			menu_pos=0;
     aee:	02 c0       	rjmp	.+4      	; 0xaf4 <_Z14perform_actionh+0xe4>
     af0:	10 92 f0 01 	sts	0x01F0, r1	; 0x8001f0 <menu_pos>
			insert_data();
     af4:	f8 dc       	rcall	.-1552   	; 0x4e6 <_Z11insert_datav>
		break;
     af6:	c8 c0       	rjmp	.+400    	; 0xc88 <_Z14perform_actionh+0x278>
		//движение по меню вверх
		case BTN_ACTION_MENU_UP:			
			if(menu_pos==0)
     af8:	80 91 f0 01 	lds	r24, 0x01F0	; 0x8001f0 <menu_pos>
     afc:	81 11       	cpse	r24, r1
     afe:	04 c0       	rjmp	.+8      	; 0xb08 <_Z14perform_actionh+0xf8>
				menu_pos=5;
     b00:	85 e0       	ldi	r24, 0x05	; 5
     b02:	80 93 f0 01 	sts	0x01F0, r24	; 0x8001f0 <menu_pos>
     b06:	03 c0       	rjmp	.+6      	; 0xb0e <_Z14perform_actionh+0xfe>
			else
				menu_pos--;
     b08:	81 50       	subi	r24, 0x01	; 1
     b0a:	80 93 f0 01 	sts	0x01F0, r24	; 0x8001f0 <menu_pos>
			insert_data();			
     b0e:	eb dc       	rcall	.-1578   	; 0x4e6 <_Z11insert_datav>
		break;
     b10:	bb c0       	rjmp	.+374    	; 0xc88 <_Z14perform_actionh+0x278>
		//циклический выбор разряда справа
		case BTN_ACTION_NEXT_DIGIT:
		cur_pos++;
     b12:	80 91 eb 01 	lds	r24, 0x01EB	; 0x8001eb <cur_pos>
     b16:	8f 5f       	subi	r24, 0xFF	; 255
     b18:	80 93 eb 01 	sts	0x01EB, r24	; 0x8001eb <cur_pos>
		if(cur_pos>end_pos)
     b1c:	90 91 ec 01 	lds	r25, 0x01EC	; 0x8001ec <end_pos>
     b20:	98 17       	cp	r25, r24
     b22:	20 f4       	brcc	.+8      	; 0xb2c <_Z14perform_actionh+0x11c>
			cur_pos=start_pos;
     b24:	80 91 ed 01 	lds	r24, 0x01ED	; 0x8001ed <start_pos>
     b28:	80 93 eb 01 	sts	0x01EB, r24	; 0x8001eb <cur_pos>
		set_cursor_pos(cur_pos);
     b2c:	80 91 eb 01 	lds	r24, 0x01EB	; 0x8001eb <cur_pos>
     b30:	64 dc       	rcall	.-1848   	; 0x3fa <_Z14set_cursor_posh>
		break;
     b32:	aa c0       	rjmp	.+340    	; 0xc88 <_Z14perform_actionh+0x278>
		//case BTN_ACTION_NO_ACTION:
		//
		//break;
		//уменьшить значение в выбранном разряде на 1
		case BTN_ACTION_VALUE_DEC:
		if(float_value)
     b34:	80 91 ee 01 	lds	r24, 0x01EE	; 0x8001ee <float_value>
     b38:	88 23       	and	r24, r24
     b3a:	59 f1       	breq	.+86     	; 0xb92 <_Z14perform_actionh+0x182>
		{
			f_source_value -= pow(10,(-2 - (cur_pos - end_pos)));
     b3c:	80 91 eb 01 	lds	r24, 0x01EB	; 0x8001eb <cur_pos>
     b40:	90 e0       	ldi	r25, 0x00	; 0
     b42:	20 91 ec 01 	lds	r18, 0x01EC	; 0x8001ec <end_pos>
     b46:	82 1b       	sub	r24, r18
     b48:	91 09       	sbc	r25, r1
     b4a:	6e ef       	ldi	r22, 0xFE	; 254
     b4c:	7f ef       	ldi	r23, 0xFF	; 255
     b4e:	68 1b       	sub	r22, r24
     b50:	79 0b       	sbc	r23, r25
     b52:	07 2e       	mov	r0, r23
     b54:	00 0c       	add	r0, r0
     b56:	88 0b       	sbc	r24, r24
     b58:	99 0b       	sbc	r25, r25
     b5a:	67 d2       	rcall	.+1230   	; 0x102a <__floatsisf>
     b5c:	9b 01       	movw	r18, r22
     b5e:	ac 01       	movw	r20, r24
     b60:	60 e0       	ldi	r22, 0x00	; 0
     b62:	70 e0       	ldi	r23, 0x00	; 0
     b64:	80 e2       	ldi	r24, 0x20	; 32
     b66:	91 e4       	ldi	r25, 0x41	; 65
     b68:	4f d3       	rcall	.+1694   	; 0x1208 <pow>
     b6a:	9b 01       	movw	r18, r22
     b6c:	ac 01       	movw	r20, r24
     b6e:	60 91 e6 01 	lds	r22, 0x01E6	; 0x8001e6 <f_source_value>
     b72:	70 91 e7 01 	lds	r23, 0x01E7	; 0x8001e7 <f_source_value+0x1>
     b76:	80 91 e8 01 	lds	r24, 0x01E8	; 0x8001e8 <f_source_value+0x2>
     b7a:	90 91 e9 01 	lds	r25, 0x01E9	; 0x8001e9 <f_source_value+0x3>
     b7e:	bd d1       	rcall	.+890    	; 0xefa <__subsf3>
     b80:	60 93 e6 01 	sts	0x01E6, r22	; 0x8001e6 <f_source_value>
     b84:	70 93 e7 01 	sts	0x01E7, r23	; 0x8001e7 <f_source_value+0x1>
     b88:	80 93 e8 01 	sts	0x01E8, r24	; 0x8001e8 <f_source_value+0x2>
     b8c:	90 93 e9 01 	sts	0x01E9, r25	; 0x8001e9 <f_source_value+0x3>
		}
		else
		{
			i_source_value -= pow(10,(end_pos - cur_pos));
     b90:	7b c0       	rjmp	.+246    	; 0xc88 <_Z14perform_actionh+0x278>
     b92:	60 91 ec 01 	lds	r22, 0x01EC	; 0x8001ec <end_pos>
     b96:	70 e0       	ldi	r23, 0x00	; 0
     b98:	80 91 eb 01 	lds	r24, 0x01EB	; 0x8001eb <cur_pos>
     b9c:	68 1b       	sub	r22, r24
     b9e:	71 09       	sbc	r23, r1
     ba0:	07 2e       	mov	r0, r23
     ba2:	00 0c       	add	r0, r0
     ba4:	88 0b       	sbc	r24, r24
     ba6:	99 0b       	sbc	r25, r25
     ba8:	40 d2       	rcall	.+1152   	; 0x102a <__floatsisf>
     baa:	9b 01       	movw	r18, r22
     bac:	ac 01       	movw	r20, r24
     bae:	60 e0       	ldi	r22, 0x00	; 0
     bb0:	70 e0       	ldi	r23, 0x00	; 0
     bb2:	80 e2       	ldi	r24, 0x20	; 32
     bb4:	91 e4       	ldi	r25, 0x41	; 65
     bb6:	28 d3       	rcall	.+1616   	; 0x1208 <pow>
     bb8:	6b 01       	movw	r12, r22
     bba:	7c 01       	movw	r14, r24
     bbc:	60 91 ea 01 	lds	r22, 0x01EA	; 0x8001ea <i_source_value>
     bc0:	70 e0       	ldi	r23, 0x00	; 0
     bc2:	80 e0       	ldi	r24, 0x00	; 0
     bc4:	90 e0       	ldi	r25, 0x00	; 0
     bc6:	31 d2       	rcall	.+1122   	; 0x102a <__floatsisf>
     bc8:	a7 01       	movw	r20, r14
     bca:	96 01       	movw	r18, r12
     bcc:	96 d1       	rcall	.+812    	; 0xefa <__subsf3>
     bce:	ff d1       	rcall	.+1022   	; 0xfce <__fixunssfsi>
     bd0:	60 93 ea 01 	sts	0x01EA, r22	; 0x8001ea <i_source_value>
     bd4:	59 c0       	rjmp	.+178    	; 0xc88 <_Z14perform_actionh+0x278>
		}
		break;
		//увеличить значение в выбранном разряде на 1
		case BTN_ACTION_VALUE_INC:
		if(float_value)
     bd6:	80 91 ee 01 	lds	r24, 0x01EE	; 0x8001ee <float_value>
     bda:	88 23       	and	r24, r24
     bdc:	59 f1       	breq	.+86     	; 0xc34 <_Z14perform_actionh+0x224>
		{
			f_source_value += pow(10,(-2 - (cur_pos - end_pos)));
     bde:	80 91 eb 01 	lds	r24, 0x01EB	; 0x8001eb <cur_pos>
     be2:	90 e0       	ldi	r25, 0x00	; 0
     be4:	20 91 ec 01 	lds	r18, 0x01EC	; 0x8001ec <end_pos>
     be8:	82 1b       	sub	r24, r18
     bea:	91 09       	sbc	r25, r1
     bec:	6e ef       	ldi	r22, 0xFE	; 254
     bee:	7f ef       	ldi	r23, 0xFF	; 255
     bf0:	68 1b       	sub	r22, r24
     bf2:	79 0b       	sbc	r23, r25
     bf4:	07 2e       	mov	r0, r23
     bf6:	00 0c       	add	r0, r0
     bf8:	88 0b       	sbc	r24, r24
     bfa:	99 0b       	sbc	r25, r25
     bfc:	16 d2       	rcall	.+1068   	; 0x102a <__floatsisf>
     bfe:	9b 01       	movw	r18, r22
     c00:	ac 01       	movw	r20, r24
     c02:	60 e0       	ldi	r22, 0x00	; 0
     c04:	70 e0       	ldi	r23, 0x00	; 0
     c06:	80 e2       	ldi	r24, 0x20	; 32
     c08:	91 e4       	ldi	r25, 0x41	; 65
     c0a:	fe d2       	rcall	.+1532   	; 0x1208 <pow>
     c0c:	9b 01       	movw	r18, r22
     c0e:	ac 01       	movw	r20, r24
     c10:	60 91 e6 01 	lds	r22, 0x01E6	; 0x8001e6 <f_source_value>
     c14:	70 91 e7 01 	lds	r23, 0x01E7	; 0x8001e7 <f_source_value+0x1>
     c18:	80 91 e8 01 	lds	r24, 0x01E8	; 0x8001e8 <f_source_value+0x2>
     c1c:	90 91 e9 01 	lds	r25, 0x01E9	; 0x8001e9 <f_source_value+0x3>
     c20:	6d d1       	rcall	.+730    	; 0xefc <__addsf3>
     c22:	60 93 e6 01 	sts	0x01E6, r22	; 0x8001e6 <f_source_value>
     c26:	70 93 e7 01 	sts	0x01E7, r23	; 0x8001e7 <f_source_value+0x1>
     c2a:	80 93 e8 01 	sts	0x01E8, r24	; 0x8001e8 <f_source_value+0x2>
     c2e:	90 93 e9 01 	sts	0x01E9, r25	; 0x8001e9 <f_source_value+0x3>
		}
		else
		{
			i_source_value += pow(10,(end_pos - cur_pos));
     c32:	2a c0       	rjmp	.+84     	; 0xc88 <_Z14perform_actionh+0x278>
     c34:	60 91 ec 01 	lds	r22, 0x01EC	; 0x8001ec <end_pos>
     c38:	70 e0       	ldi	r23, 0x00	; 0
     c3a:	80 91 eb 01 	lds	r24, 0x01EB	; 0x8001eb <cur_pos>
     c3e:	68 1b       	sub	r22, r24
     c40:	71 09       	sbc	r23, r1
     c42:	07 2e       	mov	r0, r23
     c44:	00 0c       	add	r0, r0
     c46:	88 0b       	sbc	r24, r24
     c48:	99 0b       	sbc	r25, r25
     c4a:	ef d1       	rcall	.+990    	; 0x102a <__floatsisf>
     c4c:	9b 01       	movw	r18, r22
     c4e:	ac 01       	movw	r20, r24
     c50:	60 e0       	ldi	r22, 0x00	; 0
     c52:	70 e0       	ldi	r23, 0x00	; 0
     c54:	80 e2       	ldi	r24, 0x20	; 32
     c56:	91 e4       	ldi	r25, 0x41	; 65
     c58:	d7 d2       	rcall	.+1454   	; 0x1208 <pow>
     c5a:	6b 01       	movw	r12, r22
     c5c:	7c 01       	movw	r14, r24
     c5e:	60 91 ea 01 	lds	r22, 0x01EA	; 0x8001ea <i_source_value>
     c62:	70 e0       	ldi	r23, 0x00	; 0
     c64:	80 e0       	ldi	r24, 0x00	; 0
     c66:	90 e0       	ldi	r25, 0x00	; 0
     c68:	e0 d1       	rcall	.+960    	; 0x102a <__floatsisf>
     c6a:	a7 01       	movw	r20, r14
     c6c:	96 01       	movw	r18, r12
     c6e:	46 d1       	rcall	.+652    	; 0xefc <__addsf3>
     c70:	ae d1       	rcall	.+860    	; 0xfce <__fixunssfsi>
     c72:	60 93 ea 01 	sts	0x01EA, r22	; 0x8001ea <i_source_value>
     c76:	08 c0       	rjmp	.+16     	; 0xc88 <_Z14perform_actionh+0x278>
     c78:	86 e0       	ldi	r24, 0x06	; 6
		}
		break;
		//открыть страницу ввода выбранного параметра
		case BTN_ACTION_OPEN_INPUT:
			set_template_screen(INPUT_SCREEN);
     c7a:	91 e0       	ldi	r25, 0x01	; 1
     c7c:	d5 db       	rcall	.-2134   	; 0x428 <_Z19set_template_screenPh>
     c7e:	82 e0       	ldi	r24, 0x02	; 2
     c80:	80 93 f6 01 	sts	0x01F6, r24	; 0x8001f6 <page_type>
			page_type = INPUT_PAGE;
     c84:	dc db       	rcall	.-2120   	; 0x43e <_Z18set_button_actionsh>
     c86:	2f dc       	rcall	.-1954   	; 0x4e6 <_Z11insert_datav>
			set_button_actions(page_type);
     c88:	ff 90       	pop	r15
     c8a:	ef 90       	pop	r14
			insert_data();
     c8c:	df 90       	pop	r13
     c8e:	cf 90       	pop	r12
		break;
	}
}
     c90:	08 95       	ret

00000c92 <_Z14process_buttonh>:
     c92:	0f 93       	push	r16
     c94:	1f 93       	push	r17
     c96:	cf 93       	push	r28
     c98:	df 93       	push	r29
	}
}

//обработка нажатия на кнопку
void process_button(uint8_t falling_edges)
{
     c9a:	c1 e0       	ldi	r28, 0x01	; 1
     c9c:	d0 e0       	ldi	r29, 0x00	; 0
	for(int i=0; i<8; i++)
	{
		if(0x01 & (falling_edges>>i))
     c9e:	08 2f       	mov	r16, r24
     ca0:	10 e0       	ldi	r17, 0x00	; 0
     ca2:	01 c0       	rjmp	.+2      	; 0xca6 <_Z14process_buttonh+0x14>
     ca4:	21 96       	adiw	r28, 0x01	; 1
     ca6:	9e 01       	movw	r18, r28
     ca8:	21 50       	subi	r18, 0x01	; 1
     caa:	31 09       	sbc	r19, r1
     cac:	a8 01       	movw	r20, r16
     cae:	02 2e       	mov	r0, r18
     cb0:	02 c0       	rjmp	.+4      	; 0xcb6 <_Z14process_buttonh+0x24>
     cb2:	55 95       	asr	r21
     cb4:	47 95       	ror	r20
     cb6:	0a 94       	dec	r0
     cb8:	e2 f7       	brpl	.-8      	; 0xcb2 <_Z14process_buttonh+0x20>
     cba:	40 ff       	sbrs	r20, 0
     cbc:	26 c0       	rjmp	.+76     	; 0xd0a <_Z14process_buttonh+0x78>
			switch(i)
     cbe:	23 30       	cpi	r18, 0x03	; 3
     cc0:	31 05       	cpc	r19, r1
     cc2:	b9 f0       	breq	.+46     	; 0xcf2 <_Z14process_buttonh+0x60>
     cc4:	38 f4       	brcc	.+14     	; 0xcd4 <_Z14process_buttonh+0x42>
     cc6:	21 30       	cpi	r18, 0x01	; 1
     cc8:	31 05       	cpc	r19, r1
     cca:	59 f0       	breq	.+22     	; 0xce2 <_Z14process_buttonh+0x50>
     ccc:	22 30       	cpi	r18, 0x02	; 2
     cce:	31 05       	cpc	r19, r1
     cd0:	61 f0       	breq	.+24     	; 0xcea <_Z14process_buttonh+0x58>
     cd2:	1b c0       	rjmp	.+54     	; 0xd0a <_Z14process_buttonh+0x78>
     cd4:	24 30       	cpi	r18, 0x04	; 4
     cd6:	31 05       	cpc	r19, r1
     cd8:	81 f0       	breq	.+32     	; 0xcfa <_Z14process_buttonh+0x68>
     cda:	25 30       	cpi	r18, 0x05	; 5
     cdc:	31 05       	cpc	r19, r1
     cde:	89 f0       	breq	.+34     	; 0xd02 <_Z14process_buttonh+0x70>
     ce0:	14 c0       	rjmp	.+40     	; 0xd0a <_Z14process_buttonh+0x78>
			{
				case MENU_BTN_PIN:
					perform_action(menu_btn_action);
     ce2:	80 91 f5 01 	lds	r24, 0x01F5	; 0x8001f5 <menu_btn_action>
     ce6:	94 de       	rcall	.-728    	; 0xa10 <_Z14perform_actionh>
					break;
     ce8:	dd cf       	rjmp	.-70     	; 0xca4 <_Z14process_buttonh+0x12>
					
				case UP_BTN_PIN:
					perform_action(up_btn_action);
     cea:	80 91 f2 01 	lds	r24, 0x01F2	; 0x8001f2 <up_btn_action>
     cee:	90 de       	rcall	.-736    	; 0xa10 <_Z14perform_actionh>
					break;
     cf0:	d9 cf       	rjmp	.-78     	; 0xca4 <_Z14process_buttonh+0x12>
					
				case DOWN_BTN_PIN:
					perform_action(down_btn_action);
     cf2:	80 91 f1 01 	lds	r24, 0x01F1	; 0x8001f1 <down_btn_action>
     cf6:	8c de       	rcall	.-744    	; 0xa10 <_Z14perform_actionh>
					break;
					
				case SELECT_BTN_PIN:
					perform_action(select_btn_action);
     cf8:	d5 cf       	rjmp	.-86     	; 0xca4 <_Z14process_buttonh+0x12>
     cfa:	80 91 f3 01 	lds	r24, 0x01F3	; 0x8001f3 <select_btn_action>
					break;
     cfe:	88 de       	rcall	.-752    	; 0xa10 <_Z14perform_actionh>
					
				case BACK_BTN_PIN:
					perform_action(back_btn_action);
     d00:	d1 cf       	rjmp	.-94     	; 0xca4 <_Z14process_buttonh+0x12>
     d02:	80 91 f4 01 	lds	r24, 0x01F4	; 0x8001f4 <back_btn_action>
     d06:	84 de       	rcall	.-760    	; 0xa10 <_Z14perform_actionh>
					break;
     d08:	cd cf       	rjmp	.-102    	; 0xca4 <_Z14process_buttonh+0x12>
}

//обработка нажатия на кнопку
void process_button(uint8_t falling_edges)
{
	for(int i=0; i<8; i++)
     d0a:	c8 30       	cpi	r28, 0x08	; 8
     d0c:	d1 05       	cpc	r29, r1
     d0e:	54 f2       	brlt	.-108    	; 0xca4 <_Z14process_buttonh+0x12>
				case BACK_BTN_PIN:
					perform_action(back_btn_action);
					break;
			}
	}
}
     d10:	df 91       	pop	r29
     d12:	cf 91       	pop	r28
     d14:	1f 91       	pop	r17
     d16:	0f 91       	pop	r16
     d18:	08 95       	ret

00000d1a <_Z9data_initv>:
	return cur_temp;
}

void set_cur_temp(float t)
{
	cur_temp = t;
     d1a:	cf 93       	push	r28
     d1c:	df 93       	push	r29
     d1e:	cd b7       	in	r28, 0x3d	; 61
     d20:	de b7       	in	r29, 0x3e	; 62
     d22:	2f 97       	sbiw	r28, 0x0f	; 15
     d24:	0f b6       	in	r0, 0x3f	; 63
     d26:	f8 94       	cli
     d28:	de bf       	out	0x3e, r29	; 62
     d2a:	0f be       	out	0x3f, r0	; 63
     d2c:	cd bf       	out	0x3d, r28	; 61
     d2e:	80 91 39 02 	lds	r24, 0x0239	; 0x800239 <EEPROM_Kp>
     d32:	90 91 3a 02 	lds	r25, 0x023A	; 0x80023a <EEPROM_Kp+0x1>
     d36:	a0 91 3b 02 	lds	r26, 0x023B	; 0x80023b <EEPROM_Kp+0x2>
     d3a:	b0 91 3c 02 	lds	r27, 0x023C	; 0x80023c <EEPROM_Kp+0x3>
     d3e:	89 83       	std	Y+1, r24	; 0x01
     d40:	9a 83       	std	Y+2, r25	; 0x02
     d42:	ab 83       	std	Y+3, r26	; 0x03
     d44:	bc 83       	std	Y+4, r27	; 0x04
     d46:	ce 01       	movw	r24, r28
     d48:	01 96       	adiw	r24, 0x01	; 1
     d4a:	63 d4       	rcall	.+2246   	; 0x1612 <eeprom_read_dword>
     d4c:	60 93 2a 02 	sts	0x022A, r22	; 0x80022a <Kp>
     d50:	70 93 2b 02 	sts	0x022B, r23	; 0x80022b <Kp+0x1>
     d54:	80 93 2c 02 	sts	0x022C, r24	; 0x80022c <Kp+0x2>
     d58:	90 93 2d 02 	sts	0x022D, r25	; 0x80022d <Kp+0x3>
     d5c:	80 91 35 02 	lds	r24, 0x0235	; 0x800235 <EEPROM_Ki>
     d60:	90 91 36 02 	lds	r25, 0x0236	; 0x800236 <EEPROM_Ki+0x1>
     d64:	a0 91 37 02 	lds	r26, 0x0237	; 0x800237 <EEPROM_Ki+0x2>
     d68:	b0 91 38 02 	lds	r27, 0x0238	; 0x800238 <EEPROM_Ki+0x3>
     d6c:	8d 83       	std	Y+5, r24	; 0x05
     d6e:	9e 83       	std	Y+6, r25	; 0x06
     d70:	af 83       	std	Y+7, r26	; 0x07
     d72:	b8 87       	std	Y+8, r27	; 0x08
     d74:	ce 01       	movw	r24, r28
     d76:	05 96       	adiw	r24, 0x05	; 5
     d78:	4c d4       	rcall	.+2200   	; 0x1612 <eeprom_read_dword>
     d7a:	60 93 26 02 	sts	0x0226, r22	; 0x800226 <Ki>
     d7e:	70 93 27 02 	sts	0x0227, r23	; 0x800227 <Ki+0x1>
     d82:	80 93 28 02 	sts	0x0228, r24	; 0x800228 <Ki+0x2>
     d86:	90 93 29 02 	sts	0x0229, r25	; 0x800229 <Ki+0x3>
     d8a:	80 91 31 02 	lds	r24, 0x0231	; 0x800231 <EEPROM_Kd>
     d8e:	90 91 32 02 	lds	r25, 0x0232	; 0x800232 <EEPROM_Kd+0x1>
     d92:	a0 91 33 02 	lds	r26, 0x0233	; 0x800233 <EEPROM_Kd+0x2>
     d96:	b0 91 34 02 	lds	r27, 0x0234	; 0x800234 <EEPROM_Kd+0x3>
     d9a:	89 87       	std	Y+9, r24	; 0x09
     d9c:	9a 87       	std	Y+10, r25	; 0x0a
     d9e:	ab 87       	std	Y+11, r26	; 0x0b
     da0:	bc 87       	std	Y+12, r27	; 0x0c
     da2:	ce 01       	movw	r24, r28
     da4:	09 96       	adiw	r24, 0x09	; 9
     da6:	35 d4       	rcall	.+2154   	; 0x1612 <eeprom_read_dword>
     da8:	60 93 22 02 	sts	0x0222, r22	; 0x800222 <Kd>
     dac:	70 93 23 02 	sts	0x0223, r23	; 0x800223 <Kd+0x1>
     db0:	80 93 24 02 	sts	0x0224, r24	; 0x800224 <Kd+0x2>
     db4:	90 93 25 02 	sts	0x0225, r25	; 0x800225 <Kd+0x3>
     db8:	80 91 30 02 	lds	r24, 0x0230	; 0x800230 <EEPROM_target_temp>
     dbc:	8d 87       	std	Y+13, r24	; 0x0d
     dbe:	ce 01       	movw	r24, r28
     dc0:	0d 96       	adiw	r24, 0x0d	; 13
     dc2:	1f d4       	rcall	.+2110   	; 0x1602 <eeprom_read_byte>
     dc4:	80 93 21 02 	sts	0x0221, r24	; 0x800221 <target_temp>
     dc8:	80 91 2f 02 	lds	r24, 0x022F	; 0x80022f <EEPROM_shutdown_temp>
     dcc:	8e 87       	std	Y+14, r24	; 0x0e
     dce:	ce 01       	movw	r24, r28
     dd0:	0e 96       	adiw	r24, 0x0e	; 14
     dd2:	17 d4       	rcall	.+2094   	; 0x1602 <eeprom_read_byte>
     dd4:	80 93 20 02 	sts	0x0220, r24	; 0x800220 <shutdown_temp>
     dd8:	80 91 2e 02 	lds	r24, 0x022E	; 0x80022e <EEPROM_active_relay>
     ddc:	8f 87       	std	Y+15, r24	; 0x0f
     dde:	ce 01       	movw	r24, r28
     de0:	0f 96       	adiw	r24, 0x0f	; 15
     de2:	0f d4       	rcall	.+2078   	; 0x1602 <eeprom_read_byte>
     de4:	80 93 1f 02 	sts	0x021F, r24	; 0x80021f <active_relay>
     de8:	2f 96       	adiw	r28, 0x0f	; 15
     dea:	0f b6       	in	r0, 0x3f	; 63
     dec:	f8 94       	cli
     dee:	de bf       	out	0x3e, r29	; 62
     df0:	0f be       	out	0x3f, r0	; 63
     df2:	cd bf       	out	0x3d, r28	; 61
     df4:	df 91       	pop	r29
     df6:	cf 91       	pop	r28
     df8:	08 95       	ret

00000dfa <_Z6get_Kpv>:
     dfa:	60 91 2a 02 	lds	r22, 0x022A	; 0x80022a <Kp>
     dfe:	70 91 2b 02 	lds	r23, 0x022B	; 0x80022b <Kp+0x1>
     e02:	80 91 2c 02 	lds	r24, 0x022C	; 0x80022c <Kp+0x2>
     e06:	90 91 2d 02 	lds	r25, 0x022D	; 0x80022d <Kp+0x3>
     e0a:	08 95       	ret

00000e0c <_Z6set_Kpf>:
     e0c:	60 93 2a 02 	sts	0x022A, r22	; 0x80022a <Kp>
     e10:	70 93 2b 02 	sts	0x022B, r23	; 0x80022b <Kp+0x1>
     e14:	80 93 2c 02 	sts	0x022C, r24	; 0x80022c <Kp+0x2>
     e18:	90 93 2d 02 	sts	0x022D, r25	; 0x80022d <Kp+0x3>
     e1c:	08 95       	ret

00000e1e <_Z6get_Kiv>:
     e1e:	60 91 26 02 	lds	r22, 0x0226	; 0x800226 <Ki>
     e22:	70 91 27 02 	lds	r23, 0x0227	; 0x800227 <Ki+0x1>
     e26:	80 91 28 02 	lds	r24, 0x0228	; 0x800228 <Ki+0x2>
     e2a:	90 91 29 02 	lds	r25, 0x0229	; 0x800229 <Ki+0x3>
     e2e:	08 95       	ret

00000e30 <_Z6set_Kif>:
     e30:	60 93 26 02 	sts	0x0226, r22	; 0x800226 <Ki>
     e34:	70 93 27 02 	sts	0x0227, r23	; 0x800227 <Ki+0x1>
     e38:	80 93 28 02 	sts	0x0228, r24	; 0x800228 <Ki+0x2>
     e3c:	90 93 29 02 	sts	0x0229, r25	; 0x800229 <Ki+0x3>
     e40:	08 95       	ret

00000e42 <_Z6get_Kdv>:
     e42:	60 91 22 02 	lds	r22, 0x0222	; 0x800222 <Kd>
     e46:	70 91 23 02 	lds	r23, 0x0223	; 0x800223 <Kd+0x1>
     e4a:	80 91 24 02 	lds	r24, 0x0224	; 0x800224 <Kd+0x2>
     e4e:	90 91 25 02 	lds	r25, 0x0225	; 0x800225 <Kd+0x3>
     e52:	08 95       	ret

00000e54 <_Z6set_Kdf>:
     e54:	60 93 22 02 	sts	0x0222, r22	; 0x800222 <Kd>
     e58:	70 93 23 02 	sts	0x0223, r23	; 0x800223 <Kd+0x1>
     e5c:	80 93 24 02 	sts	0x0224, r24	; 0x800224 <Kd+0x2>
     e60:	90 93 25 02 	sts	0x0225, r25	; 0x800225 <Kd+0x3>
     e64:	08 95       	ret

00000e66 <_Z15get_target_tempv>:
     e66:	80 91 21 02 	lds	r24, 0x0221	; 0x800221 <target_temp>
     e6a:	08 95       	ret

00000e6c <_Z15set_target_temph>:
     e6c:	80 93 21 02 	sts	0x0221, r24	; 0x800221 <target_temp>
     e70:	08 95       	ret

00000e72 <_Z17get_shutdown_tempv>:
     e72:	80 91 20 02 	lds	r24, 0x0220	; 0x800220 <shutdown_temp>
     e76:	08 95       	ret

00000e78 <_Z17set_shutdown_temph>:
     e78:	80 93 20 02 	sts	0x0220, r24	; 0x800220 <shutdown_temp>
     e7c:	08 95       	ret

00000e7e <_Z16get_active_relayv>:
     e7e:	80 91 1f 02 	lds	r24, 0x021F	; 0x80021f <active_relay>
     e82:	08 95       	ret

00000e84 <_Z16set_active_relayh>:
     e84:	80 93 1f 02 	sts	0x021F, r24	; 0x80021f <active_relay>
     e88:	08 95       	ret

00000e8a <_Z12get_cur_tempv>:
     e8a:	60 91 1b 02 	lds	r22, 0x021B	; 0x80021b <cur_temp>
     e8e:	70 91 1c 02 	lds	r23, 0x021C	; 0x80021c <cur_temp+0x1>
     e92:	80 91 1d 02 	lds	r24, 0x021D	; 0x80021d <cur_temp+0x2>
     e96:	90 91 1e 02 	lds	r25, 0x021E	; 0x80021e <cur_temp+0x3>
     e9a:	08 95       	ret

00000e9c <_Z13get_fan_speedv>:
}

float get_fan_speed(void)
{
	return fan_speed;
     e9c:	60 91 17 02 	lds	r22, 0x0217	; 0x800217 <fan_speed>
     ea0:	70 91 18 02 	lds	r23, 0x0218	; 0x800218 <fan_speed+0x1>
     ea4:	80 91 19 02 	lds	r24, 0x0219	; 0x800219 <fan_speed+0x2>
     ea8:	90 91 1a 02 	lds	r25, 0x021A	; 0x80021a <fan_speed+0x3>
}
     eac:	08 95       	ret

00000eae <__vector_18>:
#include <avr/interrupt.h>

uint8_t accepted_char;

ISR(USART0_RX_vect) 
{
     eae:	1f 92       	push	r1
     eb0:	0f 92       	push	r0
     eb2:	0f b6       	in	r0, 0x3f	; 63
     eb4:	0f 92       	push	r0
     eb6:	11 24       	eor	r1, r1
     eb8:	8f 93       	push	r24
	// СЃС‡РёС‚С‹РІР°РЅРёРµ РїСЂРёРЅСЏС‚РѕРіРѕ Р±Р°Р№С‚Р° РґР°РЅРЅС‹С…
	uint8_t data = UDR0;
     eba:	8c b1       	in	r24, 0x0c	; 12
	// РѕР±СЂР°Р±РѕС‚РєР°
	// ...
	accepted_char = data;
     ebc:	80 93 3d 02 	sts	0x023D, r24	; 0x80023d <accepted_char>
}
     ec0:	8f 91       	pop	r24
     ec2:	0f 90       	pop	r0
     ec4:	0f be       	out	0x3f, r0	; 63
     ec6:	0f 90       	pop	r0
     ec8:	1f 90       	pop	r1
     eca:	18 95       	reti

00000ecc <_Z9uart_initv>:
	 (1<<UCSZ01) | (1<<UCSZ00);
	 uint16_t speed = (F_CPU / 16) / 9600 - 1;
	 UBRR0H = (speed >> 8) & 0xFF;
	 UBRR0L = speed & 0xFF;
	 */
	 UCSR0A = 0x00; //flags
     ecc:	1b b8       	out	0x0b, r1	; 11
	 UCSR0B = 0x98; //TXEN RXEN int РїРѕ РїСЂРёРµРјСѓ
     ece:	88 e9       	ldi	r24, 0x98	; 152
     ed0:	8a b9       	out	0x0a, r24	; 10
	 UCSR0C = 0x86; //С„РѕСЂРјР°С‚ РїРѕСЃС‹Р»РєРё
     ed2:	86 e8       	ldi	r24, 0x86	; 134
     ed4:	80 93 95 00 	sts	0x0095, r24	; 0x800095 <__TEXT_REGION_LENGTH__+0x7e0095>
	 uint16_t speed = (F_CPU / 16) / 9600 - 1;
	 UBRR0H = (speed >> 8) & 0xFF;
     ed8:	10 92 90 00 	sts	0x0090, r1	; 0x800090 <__TEXT_REGION_LENGTH__+0x7e0090>
	 UBRR0L = speed & 0xFF;
     edc:	80 e4       	ldi	r24, 0x40	; 64
     ede:	89 b9       	out	0x09, r24	; 9

	 accepted_char = 0x00;
     ee0:	10 92 3d 02 	sts	0x023D, r1	; 0x80023d <accepted_char>
     ee4:	08 95       	ret

00000ee6 <_Z14uart_send_charv>:
 }

 void uart_send_char() {
 if(accepted_char!=0x00)
     ee6:	80 91 3d 02 	lds	r24, 0x023D	; 0x80023d <accepted_char>
     eea:	88 23       	and	r24, r24
     eec:	29 f0       	breq	.+10     	; 0xef8 <_Z14uart_send_charv+0x12>
	 {
		 // РѕР¶РёРґР°РµРј РґРѕСЃС‚СѓРїРЅРѕСЃС‚Рё СЂРµРіРёСЃС‚СЂР° РґР»СЏ Р·Р°РїРёСЃРё
		 while (!(UCSR0A & (1<<UDRE0))) ;
     eee:	5d 9b       	sbis	0x0b, 5	; 11
     ef0:	fe cf       	rjmp	.-4      	; 0xeee <_Z14uart_send_charv+0x8>
		 UDR0 = accepted_char; // Р·Р°РїРёСЃС‹РІР°РµРј РґР°РЅРЅС‹Рµ РІ СЂРµРіРёСЃС‚СЂ
     ef2:	8c b9       	out	0x0c, r24	; 12
		 accepted_char = 0x00;
     ef4:	10 92 3d 02 	sts	0x023D, r1	; 0x80023d <accepted_char>
     ef8:	08 95       	ret

00000efa <__subsf3>:
     efa:	50 58       	subi	r21, 0x80	; 128

00000efc <__addsf3>:
     efc:	bb 27       	eor	r27, r27
     efe:	aa 27       	eor	r26, r26
     f00:	0e d0       	rcall	.+28     	; 0xf1e <__addsf3x>
     f02:	e5 c0       	rjmp	.+458    	; 0x10ce <__fp_round>
     f04:	d6 d0       	rcall	.+428    	; 0x10b2 <__fp_pscA>
     f06:	30 f0       	brcs	.+12     	; 0xf14 <__addsf3+0x18>
     f08:	db d0       	rcall	.+438    	; 0x10c0 <__fp_pscB>
     f0a:	20 f0       	brcs	.+8      	; 0xf14 <__addsf3+0x18>
     f0c:	31 f4       	brne	.+12     	; 0xf1a <__addsf3+0x1e>
     f0e:	9f 3f       	cpi	r25, 0xFF	; 255
     f10:	11 f4       	brne	.+4      	; 0xf16 <__addsf3+0x1a>
     f12:	1e f4       	brtc	.+6      	; 0xf1a <__addsf3+0x1e>
     f14:	cb c0       	rjmp	.+406    	; 0x10ac <__fp_nan>
     f16:	0e f4       	brtc	.+2      	; 0xf1a <__addsf3+0x1e>
     f18:	e0 95       	com	r30
     f1a:	e7 fb       	bst	r30, 7
     f1c:	c1 c0       	rjmp	.+386    	; 0x10a0 <__fp_inf>

00000f1e <__addsf3x>:
     f1e:	e9 2f       	mov	r30, r25
     f20:	e7 d0       	rcall	.+462    	; 0x10f0 <__fp_split3>
     f22:	80 f3       	brcs	.-32     	; 0xf04 <__addsf3+0x8>
     f24:	ba 17       	cp	r27, r26
     f26:	62 07       	cpc	r22, r18
     f28:	73 07       	cpc	r23, r19
     f2a:	84 07       	cpc	r24, r20
     f2c:	95 07       	cpc	r25, r21
     f2e:	18 f0       	brcs	.+6      	; 0xf36 <__addsf3x+0x18>
     f30:	71 f4       	brne	.+28     	; 0xf4e <__addsf3x+0x30>
     f32:	9e f5       	brtc	.+102    	; 0xf9a <__addsf3x+0x7c>
     f34:	ff c0       	rjmp	.+510    	; 0x1134 <__fp_zero>
     f36:	0e f4       	brtc	.+2      	; 0xf3a <__addsf3x+0x1c>
     f38:	e0 95       	com	r30
     f3a:	0b 2e       	mov	r0, r27
     f3c:	ba 2f       	mov	r27, r26
     f3e:	a0 2d       	mov	r26, r0
     f40:	0b 01       	movw	r0, r22
     f42:	b9 01       	movw	r22, r18
     f44:	90 01       	movw	r18, r0
     f46:	0c 01       	movw	r0, r24
     f48:	ca 01       	movw	r24, r20
     f4a:	a0 01       	movw	r20, r0
     f4c:	11 24       	eor	r1, r1
     f4e:	ff 27       	eor	r31, r31
     f50:	59 1b       	sub	r21, r25
     f52:	99 f0       	breq	.+38     	; 0xf7a <__addsf3x+0x5c>
     f54:	59 3f       	cpi	r21, 0xF9	; 249
     f56:	50 f4       	brcc	.+20     	; 0xf6c <__addsf3x+0x4e>
     f58:	50 3e       	cpi	r21, 0xE0	; 224
     f5a:	68 f1       	brcs	.+90     	; 0xfb6 <__addsf3x+0x98>
     f5c:	1a 16       	cp	r1, r26
     f5e:	f0 40       	sbci	r31, 0x00	; 0
     f60:	a2 2f       	mov	r26, r18
     f62:	23 2f       	mov	r18, r19
     f64:	34 2f       	mov	r19, r20
     f66:	44 27       	eor	r20, r20
     f68:	58 5f       	subi	r21, 0xF8	; 248
     f6a:	f3 cf       	rjmp	.-26     	; 0xf52 <__addsf3x+0x34>
     f6c:	46 95       	lsr	r20
     f6e:	37 95       	ror	r19
     f70:	27 95       	ror	r18
     f72:	a7 95       	ror	r26
     f74:	f0 40       	sbci	r31, 0x00	; 0
     f76:	53 95       	inc	r21
     f78:	c9 f7       	brne	.-14     	; 0xf6c <__addsf3x+0x4e>
     f7a:	7e f4       	brtc	.+30     	; 0xf9a <__addsf3x+0x7c>
     f7c:	1f 16       	cp	r1, r31
     f7e:	ba 0b       	sbc	r27, r26
     f80:	62 0b       	sbc	r22, r18
     f82:	73 0b       	sbc	r23, r19
     f84:	84 0b       	sbc	r24, r20
     f86:	ba f0       	brmi	.+46     	; 0xfb6 <__addsf3x+0x98>
     f88:	91 50       	subi	r25, 0x01	; 1
     f8a:	a1 f0       	breq	.+40     	; 0xfb4 <__addsf3x+0x96>
     f8c:	ff 0f       	add	r31, r31
     f8e:	bb 1f       	adc	r27, r27
     f90:	66 1f       	adc	r22, r22
     f92:	77 1f       	adc	r23, r23
     f94:	88 1f       	adc	r24, r24
     f96:	c2 f7       	brpl	.-16     	; 0xf88 <__addsf3x+0x6a>
     f98:	0e c0       	rjmp	.+28     	; 0xfb6 <__addsf3x+0x98>
     f9a:	ba 0f       	add	r27, r26
     f9c:	62 1f       	adc	r22, r18
     f9e:	73 1f       	adc	r23, r19
     fa0:	84 1f       	adc	r24, r20
     fa2:	48 f4       	brcc	.+18     	; 0xfb6 <__addsf3x+0x98>
     fa4:	87 95       	ror	r24
     fa6:	77 95       	ror	r23
     fa8:	67 95       	ror	r22
     faa:	b7 95       	ror	r27
     fac:	f7 95       	ror	r31
     fae:	9e 3f       	cpi	r25, 0xFE	; 254
     fb0:	08 f0       	brcs	.+2      	; 0xfb4 <__addsf3x+0x96>
     fb2:	b3 cf       	rjmp	.-154    	; 0xf1a <__addsf3+0x1e>
     fb4:	93 95       	inc	r25
     fb6:	88 0f       	add	r24, r24
     fb8:	08 f0       	brcs	.+2      	; 0xfbc <__addsf3x+0x9e>
     fba:	99 27       	eor	r25, r25
     fbc:	ee 0f       	add	r30, r30
     fbe:	97 95       	ror	r25
     fc0:	87 95       	ror	r24
     fc2:	08 95       	ret

00000fc4 <__fixsfsi>:
     fc4:	04 d0       	rcall	.+8      	; 0xfce <__fixunssfsi>
     fc6:	68 94       	set
     fc8:	b1 11       	cpse	r27, r1
     fca:	b5 c0       	rjmp	.+362    	; 0x1136 <__fp_szero>
     fcc:	08 95       	ret

00000fce <__fixunssfsi>:
     fce:	98 d0       	rcall	.+304    	; 0x1100 <__fp_splitA>
     fd0:	88 f0       	brcs	.+34     	; 0xff4 <__fixunssfsi+0x26>
     fd2:	9f 57       	subi	r25, 0x7F	; 127
     fd4:	90 f0       	brcs	.+36     	; 0xffa <__fixunssfsi+0x2c>
     fd6:	b9 2f       	mov	r27, r25
     fd8:	99 27       	eor	r25, r25
     fda:	b7 51       	subi	r27, 0x17	; 23
     fdc:	a0 f0       	brcs	.+40     	; 0x1006 <__fixunssfsi+0x38>
     fde:	d1 f0       	breq	.+52     	; 0x1014 <__fixunssfsi+0x46>
     fe0:	66 0f       	add	r22, r22
     fe2:	77 1f       	adc	r23, r23
     fe4:	88 1f       	adc	r24, r24
     fe6:	99 1f       	adc	r25, r25
     fe8:	1a f0       	brmi	.+6      	; 0xff0 <__fixunssfsi+0x22>
     fea:	ba 95       	dec	r27
     fec:	c9 f7       	brne	.-14     	; 0xfe0 <__fixunssfsi+0x12>
     fee:	12 c0       	rjmp	.+36     	; 0x1014 <__fixunssfsi+0x46>
     ff0:	b1 30       	cpi	r27, 0x01	; 1
     ff2:	81 f0       	breq	.+32     	; 0x1014 <__fixunssfsi+0x46>
     ff4:	9f d0       	rcall	.+318    	; 0x1134 <__fp_zero>
     ff6:	b1 e0       	ldi	r27, 0x01	; 1
     ff8:	08 95       	ret
     ffa:	9c c0       	rjmp	.+312    	; 0x1134 <__fp_zero>
     ffc:	67 2f       	mov	r22, r23
     ffe:	78 2f       	mov	r23, r24
    1000:	88 27       	eor	r24, r24
    1002:	b8 5f       	subi	r27, 0xF8	; 248
    1004:	39 f0       	breq	.+14     	; 0x1014 <__fixunssfsi+0x46>
    1006:	b9 3f       	cpi	r27, 0xF9	; 249
    1008:	cc f3       	brlt	.-14     	; 0xffc <__fixunssfsi+0x2e>
    100a:	86 95       	lsr	r24
    100c:	77 95       	ror	r23
    100e:	67 95       	ror	r22
    1010:	b3 95       	inc	r27
    1012:	d9 f7       	brne	.-10     	; 0x100a <__fixunssfsi+0x3c>
    1014:	3e f4       	brtc	.+14     	; 0x1024 <__fixunssfsi+0x56>
    1016:	90 95       	com	r25
    1018:	80 95       	com	r24
    101a:	70 95       	com	r23
    101c:	61 95       	neg	r22
    101e:	7f 4f       	sbci	r23, 0xFF	; 255
    1020:	8f 4f       	sbci	r24, 0xFF	; 255
    1022:	9f 4f       	sbci	r25, 0xFF	; 255
    1024:	08 95       	ret

00001026 <__floatunsisf>:
    1026:	e8 94       	clt
    1028:	09 c0       	rjmp	.+18     	; 0x103c <__floatsisf+0x12>

0000102a <__floatsisf>:
    102a:	97 fb       	bst	r25, 7
    102c:	3e f4       	brtc	.+14     	; 0x103c <__floatsisf+0x12>
    102e:	90 95       	com	r25
    1030:	80 95       	com	r24
    1032:	70 95       	com	r23
    1034:	61 95       	neg	r22
    1036:	7f 4f       	sbci	r23, 0xFF	; 255
    1038:	8f 4f       	sbci	r24, 0xFF	; 255
    103a:	9f 4f       	sbci	r25, 0xFF	; 255
    103c:	99 23       	and	r25, r25
    103e:	a9 f0       	breq	.+42     	; 0x106a <__floatsisf+0x40>
    1040:	f9 2f       	mov	r31, r25
    1042:	96 e9       	ldi	r25, 0x96	; 150
    1044:	bb 27       	eor	r27, r27
    1046:	93 95       	inc	r25
    1048:	f6 95       	lsr	r31
    104a:	87 95       	ror	r24
    104c:	77 95       	ror	r23
    104e:	67 95       	ror	r22
    1050:	b7 95       	ror	r27
    1052:	f1 11       	cpse	r31, r1
    1054:	f8 cf       	rjmp	.-16     	; 0x1046 <__floatsisf+0x1c>
    1056:	fa f4       	brpl	.+62     	; 0x1096 <__floatsisf+0x6c>
    1058:	bb 0f       	add	r27, r27
    105a:	11 f4       	brne	.+4      	; 0x1060 <__floatsisf+0x36>
    105c:	60 ff       	sbrs	r22, 0
    105e:	1b c0       	rjmp	.+54     	; 0x1096 <__floatsisf+0x6c>
    1060:	6f 5f       	subi	r22, 0xFF	; 255
    1062:	7f 4f       	sbci	r23, 0xFF	; 255
    1064:	8f 4f       	sbci	r24, 0xFF	; 255
    1066:	9f 4f       	sbci	r25, 0xFF	; 255
    1068:	16 c0       	rjmp	.+44     	; 0x1096 <__floatsisf+0x6c>
    106a:	88 23       	and	r24, r24
    106c:	11 f0       	breq	.+4      	; 0x1072 <__floatsisf+0x48>
    106e:	96 e9       	ldi	r25, 0x96	; 150
    1070:	11 c0       	rjmp	.+34     	; 0x1094 <__floatsisf+0x6a>
    1072:	77 23       	and	r23, r23
    1074:	21 f0       	breq	.+8      	; 0x107e <__floatsisf+0x54>
    1076:	9e e8       	ldi	r25, 0x8E	; 142
    1078:	87 2f       	mov	r24, r23
    107a:	76 2f       	mov	r23, r22
    107c:	05 c0       	rjmp	.+10     	; 0x1088 <__floatsisf+0x5e>
    107e:	66 23       	and	r22, r22
    1080:	71 f0       	breq	.+28     	; 0x109e <__floatsisf+0x74>
    1082:	96 e8       	ldi	r25, 0x86	; 134
    1084:	86 2f       	mov	r24, r22
    1086:	70 e0       	ldi	r23, 0x00	; 0
    1088:	60 e0       	ldi	r22, 0x00	; 0
    108a:	2a f0       	brmi	.+10     	; 0x1096 <__floatsisf+0x6c>
    108c:	9a 95       	dec	r25
    108e:	66 0f       	add	r22, r22
    1090:	77 1f       	adc	r23, r23
    1092:	88 1f       	adc	r24, r24
    1094:	da f7       	brpl	.-10     	; 0x108c <__floatsisf+0x62>
    1096:	88 0f       	add	r24, r24
    1098:	96 95       	lsr	r25
    109a:	87 95       	ror	r24
    109c:	97 f9       	bld	r25, 7
    109e:	08 95       	ret

000010a0 <__fp_inf>:
    10a0:	97 f9       	bld	r25, 7
    10a2:	9f 67       	ori	r25, 0x7F	; 127
    10a4:	80 e8       	ldi	r24, 0x80	; 128
    10a6:	70 e0       	ldi	r23, 0x00	; 0
    10a8:	60 e0       	ldi	r22, 0x00	; 0
    10aa:	08 95       	ret

000010ac <__fp_nan>:
    10ac:	9f ef       	ldi	r25, 0xFF	; 255
    10ae:	80 ec       	ldi	r24, 0xC0	; 192
    10b0:	08 95       	ret

000010b2 <__fp_pscA>:
    10b2:	00 24       	eor	r0, r0
    10b4:	0a 94       	dec	r0
    10b6:	16 16       	cp	r1, r22
    10b8:	17 06       	cpc	r1, r23
    10ba:	18 06       	cpc	r1, r24
    10bc:	09 06       	cpc	r0, r25
    10be:	08 95       	ret

000010c0 <__fp_pscB>:
    10c0:	00 24       	eor	r0, r0
    10c2:	0a 94       	dec	r0
    10c4:	12 16       	cp	r1, r18
    10c6:	13 06       	cpc	r1, r19
    10c8:	14 06       	cpc	r1, r20
    10ca:	05 06       	cpc	r0, r21
    10cc:	08 95       	ret

000010ce <__fp_round>:
    10ce:	09 2e       	mov	r0, r25
    10d0:	03 94       	inc	r0
    10d2:	00 0c       	add	r0, r0
    10d4:	11 f4       	brne	.+4      	; 0x10da <__fp_round+0xc>
    10d6:	88 23       	and	r24, r24
    10d8:	52 f0       	brmi	.+20     	; 0x10ee <__fp_round+0x20>
    10da:	bb 0f       	add	r27, r27
    10dc:	40 f4       	brcc	.+16     	; 0x10ee <__fp_round+0x20>
    10de:	bf 2b       	or	r27, r31
    10e0:	11 f4       	brne	.+4      	; 0x10e6 <__fp_round+0x18>
    10e2:	60 ff       	sbrs	r22, 0
    10e4:	04 c0       	rjmp	.+8      	; 0x10ee <__fp_round+0x20>
    10e6:	6f 5f       	subi	r22, 0xFF	; 255
    10e8:	7f 4f       	sbci	r23, 0xFF	; 255
    10ea:	8f 4f       	sbci	r24, 0xFF	; 255
    10ec:	9f 4f       	sbci	r25, 0xFF	; 255
    10ee:	08 95       	ret

000010f0 <__fp_split3>:
    10f0:	57 fd       	sbrc	r21, 7
    10f2:	90 58       	subi	r25, 0x80	; 128
    10f4:	44 0f       	add	r20, r20
    10f6:	55 1f       	adc	r21, r21
    10f8:	59 f0       	breq	.+22     	; 0x1110 <__fp_splitA+0x10>
    10fa:	5f 3f       	cpi	r21, 0xFF	; 255
    10fc:	71 f0       	breq	.+28     	; 0x111a <__fp_splitA+0x1a>
    10fe:	47 95       	ror	r20

00001100 <__fp_splitA>:
    1100:	88 0f       	add	r24, r24
    1102:	97 fb       	bst	r25, 7
    1104:	99 1f       	adc	r25, r25
    1106:	61 f0       	breq	.+24     	; 0x1120 <__fp_splitA+0x20>
    1108:	9f 3f       	cpi	r25, 0xFF	; 255
    110a:	79 f0       	breq	.+30     	; 0x112a <__fp_splitA+0x2a>
    110c:	87 95       	ror	r24
    110e:	08 95       	ret
    1110:	12 16       	cp	r1, r18
    1112:	13 06       	cpc	r1, r19
    1114:	14 06       	cpc	r1, r20
    1116:	55 1f       	adc	r21, r21
    1118:	f2 cf       	rjmp	.-28     	; 0x10fe <__fp_split3+0xe>
    111a:	46 95       	lsr	r20
    111c:	f1 df       	rcall	.-30     	; 0x1100 <__fp_splitA>
    111e:	08 c0       	rjmp	.+16     	; 0x1130 <__fp_splitA+0x30>
    1120:	16 16       	cp	r1, r22
    1122:	17 06       	cpc	r1, r23
    1124:	18 06       	cpc	r1, r24
    1126:	99 1f       	adc	r25, r25
    1128:	f1 cf       	rjmp	.-30     	; 0x110c <__fp_splitA+0xc>
    112a:	86 95       	lsr	r24
    112c:	71 05       	cpc	r23, r1
    112e:	61 05       	cpc	r22, r1
    1130:	08 94       	sec
    1132:	08 95       	ret

00001134 <__fp_zero>:
    1134:	e8 94       	clt

00001136 <__fp_szero>:
    1136:	bb 27       	eor	r27, r27
    1138:	66 27       	eor	r22, r22
    113a:	77 27       	eor	r23, r23
    113c:	cb 01       	movw	r24, r22
    113e:	97 f9       	bld	r25, 7
    1140:	08 95       	ret

00001142 <__mulsf3>:
    1142:	0b d0       	rcall	.+22     	; 0x115a <__mulsf3x>
    1144:	c4 cf       	rjmp	.-120    	; 0x10ce <__fp_round>
    1146:	b5 df       	rcall	.-150    	; 0x10b2 <__fp_pscA>
    1148:	28 f0       	brcs	.+10     	; 0x1154 <__mulsf3+0x12>
    114a:	ba df       	rcall	.-140    	; 0x10c0 <__fp_pscB>
    114c:	18 f0       	brcs	.+6      	; 0x1154 <__mulsf3+0x12>
    114e:	95 23       	and	r25, r21
    1150:	09 f0       	breq	.+2      	; 0x1154 <__mulsf3+0x12>
    1152:	a6 cf       	rjmp	.-180    	; 0x10a0 <__fp_inf>
    1154:	ab cf       	rjmp	.-170    	; 0x10ac <__fp_nan>
    1156:	11 24       	eor	r1, r1
    1158:	ee cf       	rjmp	.-36     	; 0x1136 <__fp_szero>

0000115a <__mulsf3x>:
    115a:	ca df       	rcall	.-108    	; 0x10f0 <__fp_split3>
    115c:	a0 f3       	brcs	.-24     	; 0x1146 <__mulsf3+0x4>

0000115e <__mulsf3_pse>:
    115e:	95 9f       	mul	r25, r21
    1160:	d1 f3       	breq	.-12     	; 0x1156 <__mulsf3+0x14>
    1162:	95 0f       	add	r25, r21
    1164:	50 e0       	ldi	r21, 0x00	; 0
    1166:	55 1f       	adc	r21, r21
    1168:	62 9f       	mul	r22, r18
    116a:	f0 01       	movw	r30, r0
    116c:	72 9f       	mul	r23, r18
    116e:	bb 27       	eor	r27, r27
    1170:	f0 0d       	add	r31, r0
    1172:	b1 1d       	adc	r27, r1
    1174:	63 9f       	mul	r22, r19
    1176:	aa 27       	eor	r26, r26
    1178:	f0 0d       	add	r31, r0
    117a:	b1 1d       	adc	r27, r1
    117c:	aa 1f       	adc	r26, r26
    117e:	64 9f       	mul	r22, r20
    1180:	66 27       	eor	r22, r22
    1182:	b0 0d       	add	r27, r0
    1184:	a1 1d       	adc	r26, r1
    1186:	66 1f       	adc	r22, r22
    1188:	82 9f       	mul	r24, r18
    118a:	22 27       	eor	r18, r18
    118c:	b0 0d       	add	r27, r0
    118e:	a1 1d       	adc	r26, r1
    1190:	62 1f       	adc	r22, r18
    1192:	73 9f       	mul	r23, r19
    1194:	b0 0d       	add	r27, r0
    1196:	a1 1d       	adc	r26, r1
    1198:	62 1f       	adc	r22, r18
    119a:	83 9f       	mul	r24, r19
    119c:	a0 0d       	add	r26, r0
    119e:	61 1d       	adc	r22, r1
    11a0:	22 1f       	adc	r18, r18
    11a2:	74 9f       	mul	r23, r20
    11a4:	33 27       	eor	r19, r19
    11a6:	a0 0d       	add	r26, r0
    11a8:	61 1d       	adc	r22, r1
    11aa:	23 1f       	adc	r18, r19
    11ac:	84 9f       	mul	r24, r20
    11ae:	60 0d       	add	r22, r0
    11b0:	21 1d       	adc	r18, r1
    11b2:	82 2f       	mov	r24, r18
    11b4:	76 2f       	mov	r23, r22
    11b6:	6a 2f       	mov	r22, r26
    11b8:	11 24       	eor	r1, r1
    11ba:	9f 57       	subi	r25, 0x7F	; 127
    11bc:	50 40       	sbci	r21, 0x00	; 0
    11be:	8a f0       	brmi	.+34     	; 0x11e2 <__mulsf3_pse+0x84>
    11c0:	e1 f0       	breq	.+56     	; 0x11fa <__mulsf3_pse+0x9c>
    11c2:	88 23       	and	r24, r24
    11c4:	4a f0       	brmi	.+18     	; 0x11d8 <__mulsf3_pse+0x7a>
    11c6:	ee 0f       	add	r30, r30
    11c8:	ff 1f       	adc	r31, r31
    11ca:	bb 1f       	adc	r27, r27
    11cc:	66 1f       	adc	r22, r22
    11ce:	77 1f       	adc	r23, r23
    11d0:	88 1f       	adc	r24, r24
    11d2:	91 50       	subi	r25, 0x01	; 1
    11d4:	50 40       	sbci	r21, 0x00	; 0
    11d6:	a9 f7       	brne	.-22     	; 0x11c2 <__mulsf3_pse+0x64>
    11d8:	9e 3f       	cpi	r25, 0xFE	; 254
    11da:	51 05       	cpc	r21, r1
    11dc:	70 f0       	brcs	.+28     	; 0x11fa <__mulsf3_pse+0x9c>
    11de:	60 cf       	rjmp	.-320    	; 0x10a0 <__fp_inf>
    11e0:	aa cf       	rjmp	.-172    	; 0x1136 <__fp_szero>
    11e2:	5f 3f       	cpi	r21, 0xFF	; 255
    11e4:	ec f3       	brlt	.-6      	; 0x11e0 <__mulsf3_pse+0x82>
    11e6:	98 3e       	cpi	r25, 0xE8	; 232
    11e8:	dc f3       	brlt	.-10     	; 0x11e0 <__mulsf3_pse+0x82>
    11ea:	86 95       	lsr	r24
    11ec:	77 95       	ror	r23
    11ee:	67 95       	ror	r22
    11f0:	b7 95       	ror	r27
    11f2:	f7 95       	ror	r31
    11f4:	e7 95       	ror	r30
    11f6:	9f 5f       	subi	r25, 0xFF	; 255
    11f8:	c1 f7       	brne	.-16     	; 0x11ea <__mulsf3_pse+0x8c>
    11fa:	fe 2b       	or	r31, r30
    11fc:	88 0f       	add	r24, r24
    11fe:	91 1d       	adc	r25, r1
    1200:	96 95       	lsr	r25
    1202:	87 95       	ror	r24
    1204:	97 f9       	bld	r25, 7
    1206:	08 95       	ret

00001208 <pow>:
    1208:	fa 01       	movw	r30, r20
    120a:	ee 0f       	add	r30, r30
    120c:	ff 1f       	adc	r31, r31
    120e:	30 96       	adiw	r30, 0x00	; 0
    1210:	21 05       	cpc	r18, r1
    1212:	31 05       	cpc	r19, r1
    1214:	99 f1       	breq	.+102    	; 0x127c <pow+0x74>
    1216:	61 15       	cp	r22, r1
    1218:	71 05       	cpc	r23, r1
    121a:	61 f4       	brne	.+24     	; 0x1234 <pow+0x2c>
    121c:	80 38       	cpi	r24, 0x80	; 128
    121e:	bf e3       	ldi	r27, 0x3F	; 63
    1220:	9b 07       	cpc	r25, r27
    1222:	49 f1       	breq	.+82     	; 0x1276 <pow+0x6e>
    1224:	68 94       	set
    1226:	90 38       	cpi	r25, 0x80	; 128
    1228:	81 05       	cpc	r24, r1
    122a:	61 f0       	breq	.+24     	; 0x1244 <pow+0x3c>
    122c:	80 38       	cpi	r24, 0x80	; 128
    122e:	bf ef       	ldi	r27, 0xFF	; 255
    1230:	9b 07       	cpc	r25, r27
    1232:	41 f0       	breq	.+16     	; 0x1244 <pow+0x3c>
    1234:	99 23       	and	r25, r25
    1236:	42 f5       	brpl	.+80     	; 0x1288 <pow+0x80>
    1238:	ff 3f       	cpi	r31, 0xFF	; 255
    123a:	e1 05       	cpc	r30, r1
    123c:	31 05       	cpc	r19, r1
    123e:	21 05       	cpc	r18, r1
    1240:	11 f1       	breq	.+68     	; 0x1286 <pow+0x7e>
    1242:	e8 94       	clt
    1244:	08 94       	sec
    1246:	e7 95       	ror	r30
    1248:	d9 01       	movw	r26, r18
    124a:	aa 23       	and	r26, r26
    124c:	29 f4       	brne	.+10     	; 0x1258 <pow+0x50>
    124e:	ab 2f       	mov	r26, r27
    1250:	be 2f       	mov	r27, r30
    1252:	f8 5f       	subi	r31, 0xF8	; 248
    1254:	d0 f3       	brcs	.-12     	; 0x124a <pow+0x42>
    1256:	10 c0       	rjmp	.+32     	; 0x1278 <pow+0x70>
    1258:	ff 5f       	subi	r31, 0xFF	; 255
    125a:	70 f4       	brcc	.+28     	; 0x1278 <pow+0x70>
    125c:	a6 95       	lsr	r26
    125e:	e0 f7       	brcc	.-8      	; 0x1258 <pow+0x50>
    1260:	f7 39       	cpi	r31, 0x97	; 151
    1262:	50 f0       	brcs	.+20     	; 0x1278 <pow+0x70>
    1264:	19 f0       	breq	.+6      	; 0x126c <pow+0x64>
    1266:	ff 3a       	cpi	r31, 0xAF	; 175
    1268:	38 f4       	brcc	.+14     	; 0x1278 <pow+0x70>
    126a:	9f 77       	andi	r25, 0x7F	; 127
    126c:	9f 93       	push	r25
    126e:	0c d0       	rcall	.+24     	; 0x1288 <pow+0x80>
    1270:	0f 90       	pop	r0
    1272:	07 fc       	sbrc	r0, 7
    1274:	90 58       	subi	r25, 0x80	; 128
    1276:	08 95       	ret
    1278:	3e f0       	brts	.+14     	; 0x1288 <pow+0x80>
    127a:	18 cf       	rjmp	.-464    	; 0x10ac <__fp_nan>
    127c:	60 e0       	ldi	r22, 0x00	; 0
    127e:	70 e0       	ldi	r23, 0x00	; 0
    1280:	80 e8       	ldi	r24, 0x80	; 128
    1282:	9f e3       	ldi	r25, 0x3F	; 63
    1284:	08 95       	ret
    1286:	4f e7       	ldi	r20, 0x7F	; 127
    1288:	9f 77       	andi	r25, 0x7F	; 127
    128a:	5f 93       	push	r21
    128c:	4f 93       	push	r20
    128e:	3f 93       	push	r19
    1290:	2f 93       	push	r18
    1292:	9e d0       	rcall	.+316    	; 0x13d0 <log>
    1294:	2f 91       	pop	r18
    1296:	3f 91       	pop	r19
    1298:	4f 91       	pop	r20
    129a:	5f 91       	pop	r21
    129c:	52 df       	rcall	.-348    	; 0x1142 <__mulsf3>
    129e:	05 c0       	rjmp	.+10     	; 0x12aa <exp>
    12a0:	19 f4       	brne	.+6      	; 0x12a8 <pow+0xa0>
    12a2:	0e f0       	brts	.+2      	; 0x12a6 <pow+0x9e>
    12a4:	fd ce       	rjmp	.-518    	; 0x10a0 <__fp_inf>
    12a6:	46 cf       	rjmp	.-372    	; 0x1134 <__fp_zero>
    12a8:	01 cf       	rjmp	.-510    	; 0x10ac <__fp_nan>

000012aa <exp>:
    12aa:	2a df       	rcall	.-428    	; 0x1100 <__fp_splitA>
    12ac:	c8 f3       	brcs	.-14     	; 0x12a0 <pow+0x98>
    12ae:	96 38       	cpi	r25, 0x86	; 134
    12b0:	c0 f7       	brcc	.-16     	; 0x12a2 <pow+0x9a>
    12b2:	07 f8       	bld	r0, 7
    12b4:	0f 92       	push	r0
    12b6:	e8 94       	clt
    12b8:	2b e3       	ldi	r18, 0x3B	; 59
    12ba:	3a ea       	ldi	r19, 0xAA	; 170
    12bc:	48 eb       	ldi	r20, 0xB8	; 184
    12be:	5f e7       	ldi	r21, 0x7F	; 127
    12c0:	4e df       	rcall	.-356    	; 0x115e <__mulsf3_pse>
    12c2:	0f 92       	push	r0
    12c4:	0f 92       	push	r0
    12c6:	0f 92       	push	r0
    12c8:	4d b7       	in	r20, 0x3d	; 61
    12ca:	5e b7       	in	r21, 0x3e	; 62
    12cc:	0f 92       	push	r0
    12ce:	c0 d0       	rcall	.+384    	; 0x1450 <modf>
    12d0:	e0 ea       	ldi	r30, 0xA0	; 160
    12d2:	f0 e0       	ldi	r31, 0x00	; 0
    12d4:	16 d0       	rcall	.+44     	; 0x1302 <__fp_powser>
    12d6:	4f 91       	pop	r20
    12d8:	5f 91       	pop	r21
    12da:	ef 91       	pop	r30
    12dc:	ff 91       	pop	r31
    12de:	e5 95       	asr	r30
    12e0:	ee 1f       	adc	r30, r30
    12e2:	ff 1f       	adc	r31, r31
    12e4:	49 f0       	breq	.+18     	; 0x12f8 <exp+0x4e>
    12e6:	fe 57       	subi	r31, 0x7E	; 126
    12e8:	e0 68       	ori	r30, 0x80	; 128
    12ea:	44 27       	eor	r20, r20
    12ec:	ee 0f       	add	r30, r30
    12ee:	44 1f       	adc	r20, r20
    12f0:	fa 95       	dec	r31
    12f2:	e1 f7       	brne	.-8      	; 0x12ec <exp+0x42>
    12f4:	41 95       	neg	r20
    12f6:	55 0b       	sbc	r21, r21
    12f8:	32 d0       	rcall	.+100    	; 0x135e <ldexp>
    12fa:	0f 90       	pop	r0
    12fc:	07 fe       	sbrs	r0, 7
    12fe:	26 c0       	rjmp	.+76     	; 0x134c <inverse>
    1300:	08 95       	ret

00001302 <__fp_powser>:
    1302:	df 93       	push	r29
    1304:	cf 93       	push	r28
    1306:	1f 93       	push	r17
    1308:	0f 93       	push	r16
    130a:	ff 92       	push	r15
    130c:	ef 92       	push	r14
    130e:	df 92       	push	r13
    1310:	7b 01       	movw	r14, r22
    1312:	8c 01       	movw	r16, r24
    1314:	68 94       	set
    1316:	05 c0       	rjmp	.+10     	; 0x1322 <__fp_powser+0x20>
    1318:	da 2e       	mov	r13, r26
    131a:	ef 01       	movw	r28, r30
    131c:	1e df       	rcall	.-452    	; 0x115a <__mulsf3x>
    131e:	fe 01       	movw	r30, r28
    1320:	e8 94       	clt
    1322:	a5 91       	lpm	r26, Z+
    1324:	25 91       	lpm	r18, Z+
    1326:	35 91       	lpm	r19, Z+
    1328:	45 91       	lpm	r20, Z+
    132a:	55 91       	lpm	r21, Z+
    132c:	ae f3       	brts	.-22     	; 0x1318 <__fp_powser+0x16>
    132e:	ef 01       	movw	r28, r30
    1330:	f6 dd       	rcall	.-1044   	; 0xf1e <__addsf3x>
    1332:	fe 01       	movw	r30, r28
    1334:	97 01       	movw	r18, r14
    1336:	a8 01       	movw	r20, r16
    1338:	da 94       	dec	r13
    133a:	79 f7       	brne	.-34     	; 0x131a <__fp_powser+0x18>
    133c:	df 90       	pop	r13
    133e:	ef 90       	pop	r14
    1340:	ff 90       	pop	r15
    1342:	0f 91       	pop	r16
    1344:	1f 91       	pop	r17
    1346:	cf 91       	pop	r28
    1348:	df 91       	pop	r29
    134a:	08 95       	ret

0000134c <inverse>:
    134c:	9b 01       	movw	r18, r22
    134e:	ac 01       	movw	r20, r24
    1350:	60 e0       	ldi	r22, 0x00	; 0
    1352:	70 e0       	ldi	r23, 0x00	; 0
    1354:	80 e8       	ldi	r24, 0x80	; 128
    1356:	9f e3       	ldi	r25, 0x3F	; 63
    1358:	ae c0       	rjmp	.+348    	; 0x14b6 <__divsf3>
    135a:	a2 ce       	rjmp	.-700    	; 0x10a0 <__fp_inf>
    135c:	14 c1       	rjmp	.+552    	; 0x1586 <__fp_mpack>

0000135e <ldexp>:
    135e:	d0 de       	rcall	.-608    	; 0x1100 <__fp_splitA>
    1360:	e8 f3       	brcs	.-6      	; 0x135c <inverse+0x10>
    1362:	99 23       	and	r25, r25
    1364:	d9 f3       	breq	.-10     	; 0x135c <inverse+0x10>
    1366:	94 0f       	add	r25, r20
    1368:	51 1d       	adc	r21, r1
    136a:	bb f3       	brvs	.-18     	; 0x135a <inverse+0xe>
    136c:	91 50       	subi	r25, 0x01	; 1
    136e:	50 40       	sbci	r21, 0x00	; 0
    1370:	94 f0       	brlt	.+36     	; 0x1396 <ldexp+0x38>
    1372:	59 f0       	breq	.+22     	; 0x138a <ldexp+0x2c>
    1374:	88 23       	and	r24, r24
    1376:	32 f0       	brmi	.+12     	; 0x1384 <ldexp+0x26>
    1378:	66 0f       	add	r22, r22
    137a:	77 1f       	adc	r23, r23
    137c:	88 1f       	adc	r24, r24
    137e:	91 50       	subi	r25, 0x01	; 1
    1380:	50 40       	sbci	r21, 0x00	; 0
    1382:	c1 f7       	brne	.-16     	; 0x1374 <ldexp+0x16>
    1384:	9e 3f       	cpi	r25, 0xFE	; 254
    1386:	51 05       	cpc	r21, r1
    1388:	44 f7       	brge	.-48     	; 0x135a <inverse+0xe>
    138a:	88 0f       	add	r24, r24
    138c:	91 1d       	adc	r25, r1
    138e:	96 95       	lsr	r25
    1390:	87 95       	ror	r24
    1392:	97 f9       	bld	r25, 7
    1394:	08 95       	ret
    1396:	5f 3f       	cpi	r21, 0xFF	; 255
    1398:	ac f0       	brlt	.+42     	; 0x13c4 <ldexp+0x66>
    139a:	98 3e       	cpi	r25, 0xE8	; 232
    139c:	9c f0       	brlt	.+38     	; 0x13c4 <ldexp+0x66>
    139e:	bb 27       	eor	r27, r27
    13a0:	86 95       	lsr	r24
    13a2:	77 95       	ror	r23
    13a4:	67 95       	ror	r22
    13a6:	b7 95       	ror	r27
    13a8:	08 f4       	brcc	.+2      	; 0x13ac <ldexp+0x4e>
    13aa:	b1 60       	ori	r27, 0x01	; 1
    13ac:	93 95       	inc	r25
    13ae:	c1 f7       	brne	.-16     	; 0x13a0 <ldexp+0x42>
    13b0:	bb 0f       	add	r27, r27
    13b2:	58 f7       	brcc	.-42     	; 0x138a <ldexp+0x2c>
    13b4:	11 f4       	brne	.+4      	; 0x13ba <ldexp+0x5c>
    13b6:	60 ff       	sbrs	r22, 0
    13b8:	e8 cf       	rjmp	.-48     	; 0x138a <ldexp+0x2c>
    13ba:	6f 5f       	subi	r22, 0xFF	; 255
    13bc:	7f 4f       	sbci	r23, 0xFF	; 255
    13be:	8f 4f       	sbci	r24, 0xFF	; 255
    13c0:	9f 4f       	sbci	r25, 0xFF	; 255
    13c2:	e3 cf       	rjmp	.-58     	; 0x138a <ldexp+0x2c>
    13c4:	b8 ce       	rjmp	.-656    	; 0x1136 <__fp_szero>
    13c6:	0e f0       	brts	.+2      	; 0x13ca <ldexp+0x6c>
    13c8:	de c0       	rjmp	.+444    	; 0x1586 <__fp_mpack>
    13ca:	70 ce       	rjmp	.-800    	; 0x10ac <__fp_nan>
    13cc:	68 94       	set
    13ce:	68 ce       	rjmp	.-816    	; 0x10a0 <__fp_inf>

000013d0 <log>:
    13d0:	97 de       	rcall	.-722    	; 0x1100 <__fp_splitA>
    13d2:	c8 f3       	brcs	.-14     	; 0x13c6 <ldexp+0x68>
    13d4:	99 23       	and	r25, r25
    13d6:	d1 f3       	breq	.-12     	; 0x13cc <ldexp+0x6e>
    13d8:	c6 f3       	brts	.-16     	; 0x13ca <ldexp+0x6c>
    13da:	df 93       	push	r29
    13dc:	cf 93       	push	r28
    13de:	1f 93       	push	r17
    13e0:	0f 93       	push	r16
    13e2:	ff 92       	push	r15
    13e4:	c9 2f       	mov	r28, r25
    13e6:	dd 27       	eor	r29, r29
    13e8:	88 23       	and	r24, r24
    13ea:	2a f0       	brmi	.+10     	; 0x13f6 <log+0x26>
    13ec:	21 97       	sbiw	r28, 0x01	; 1
    13ee:	66 0f       	add	r22, r22
    13f0:	77 1f       	adc	r23, r23
    13f2:	88 1f       	adc	r24, r24
    13f4:	da f7       	brpl	.-10     	; 0x13ec <log+0x1c>
    13f6:	20 e0       	ldi	r18, 0x00	; 0
    13f8:	30 e0       	ldi	r19, 0x00	; 0
    13fa:	40 e8       	ldi	r20, 0x80	; 128
    13fc:	5f eb       	ldi	r21, 0xBF	; 191
    13fe:	9f e3       	ldi	r25, 0x3F	; 63
    1400:	88 39       	cpi	r24, 0x98	; 152
    1402:	20 f0       	brcs	.+8      	; 0x140c <log+0x3c>
    1404:	80 3e       	cpi	r24, 0xE0	; 224
    1406:	30 f0       	brcs	.+12     	; 0x1414 <log+0x44>
    1408:	21 96       	adiw	r28, 0x01	; 1
    140a:	8f 77       	andi	r24, 0x7F	; 127
    140c:	77 dd       	rcall	.-1298   	; 0xefc <__addsf3>
    140e:	e8 ec       	ldi	r30, 0xC8	; 200
    1410:	f0 e0       	ldi	r31, 0x00	; 0
    1412:	03 c0       	rjmp	.+6      	; 0x141a <log+0x4a>
    1414:	73 dd       	rcall	.-1306   	; 0xefc <__addsf3>
    1416:	e5 ef       	ldi	r30, 0xF5	; 245
    1418:	f0 e0       	ldi	r31, 0x00	; 0
    141a:	73 df       	rcall	.-282    	; 0x1302 <__fp_powser>
    141c:	8b 01       	movw	r16, r22
    141e:	be 01       	movw	r22, r28
    1420:	ec 01       	movw	r28, r24
    1422:	fb 2e       	mov	r15, r27
    1424:	6f 57       	subi	r22, 0x7F	; 127
    1426:	71 09       	sbc	r23, r1
    1428:	75 95       	asr	r23
    142a:	77 1f       	adc	r23, r23
    142c:	88 0b       	sbc	r24, r24
    142e:	99 0b       	sbc	r25, r25
    1430:	fc dd       	rcall	.-1032   	; 0x102a <__floatsisf>
    1432:	28 e1       	ldi	r18, 0x18	; 24
    1434:	32 e7       	ldi	r19, 0x72	; 114
    1436:	41 e3       	ldi	r20, 0x31	; 49
    1438:	5f e3       	ldi	r21, 0x3F	; 63
    143a:	8f de       	rcall	.-738    	; 0x115a <__mulsf3x>
    143c:	af 2d       	mov	r26, r15
    143e:	98 01       	movw	r18, r16
    1440:	ae 01       	movw	r20, r28
    1442:	ff 90       	pop	r15
    1444:	0f 91       	pop	r16
    1446:	1f 91       	pop	r17
    1448:	cf 91       	pop	r28
    144a:	df 91       	pop	r29
    144c:	68 dd       	rcall	.-1328   	; 0xf1e <__addsf3x>
    144e:	3f ce       	rjmp	.-898    	; 0x10ce <__fp_round>

00001450 <modf>:
    1450:	fa 01       	movw	r30, r20
    1452:	dc 01       	movw	r26, r24
    1454:	aa 0f       	add	r26, r26
    1456:	bb 1f       	adc	r27, r27
    1458:	9b 01       	movw	r18, r22
    145a:	ac 01       	movw	r20, r24
    145c:	bf 57       	subi	r27, 0x7F	; 127
    145e:	28 f4       	brcc	.+10     	; 0x146a <modf+0x1a>
    1460:	22 27       	eor	r18, r18
    1462:	33 27       	eor	r19, r19
    1464:	44 27       	eor	r20, r20
    1466:	50 78       	andi	r21, 0x80	; 128
    1468:	1f c0       	rjmp	.+62     	; 0x14a8 <modf+0x58>
    146a:	b7 51       	subi	r27, 0x17	; 23
    146c:	88 f4       	brcc	.+34     	; 0x1490 <modf+0x40>
    146e:	ab 2f       	mov	r26, r27
    1470:	00 24       	eor	r0, r0
    1472:	46 95       	lsr	r20
    1474:	37 95       	ror	r19
    1476:	27 95       	ror	r18
    1478:	01 1c       	adc	r0, r1
    147a:	a3 95       	inc	r26
    147c:	d2 f3       	brmi	.-12     	; 0x1472 <modf+0x22>
    147e:	00 20       	and	r0, r0
    1480:	69 f0       	breq	.+26     	; 0x149c <modf+0x4c>
    1482:	22 0f       	add	r18, r18
    1484:	33 1f       	adc	r19, r19
    1486:	44 1f       	adc	r20, r20
    1488:	b3 95       	inc	r27
    148a:	da f3       	brmi	.-10     	; 0x1482 <modf+0x32>
    148c:	0d d0       	rcall	.+26     	; 0x14a8 <modf+0x58>
    148e:	35 cd       	rjmp	.-1430   	; 0xefa <__subsf3>
    1490:	61 30       	cpi	r22, 0x01	; 1
    1492:	71 05       	cpc	r23, r1
    1494:	a0 e8       	ldi	r26, 0x80	; 128
    1496:	8a 07       	cpc	r24, r26
    1498:	b9 46       	sbci	r27, 0x69	; 105
    149a:	30 f4       	brcc	.+12     	; 0x14a8 <modf+0x58>
    149c:	9b 01       	movw	r18, r22
    149e:	ac 01       	movw	r20, r24
    14a0:	66 27       	eor	r22, r22
    14a2:	77 27       	eor	r23, r23
    14a4:	88 27       	eor	r24, r24
    14a6:	90 78       	andi	r25, 0x80	; 128
    14a8:	30 96       	adiw	r30, 0x00	; 0
    14aa:	21 f0       	breq	.+8      	; 0x14b4 <modf+0x64>
    14ac:	20 83       	st	Z, r18
    14ae:	31 83       	std	Z+1, r19	; 0x01
    14b0:	42 83       	std	Z+2, r20	; 0x02
    14b2:	53 83       	std	Z+3, r21	; 0x03
    14b4:	08 95       	ret

000014b6 <__divsf3>:
    14b6:	0c d0       	rcall	.+24     	; 0x14d0 <__divsf3x>
    14b8:	0a ce       	rjmp	.-1004   	; 0x10ce <__fp_round>
    14ba:	02 de       	rcall	.-1020   	; 0x10c0 <__fp_pscB>
    14bc:	40 f0       	brcs	.+16     	; 0x14ce <__divsf3+0x18>
    14be:	f9 dd       	rcall	.-1038   	; 0x10b2 <__fp_pscA>
    14c0:	30 f0       	brcs	.+12     	; 0x14ce <__divsf3+0x18>
    14c2:	21 f4       	brne	.+8      	; 0x14cc <__divsf3+0x16>
    14c4:	5f 3f       	cpi	r21, 0xFF	; 255
    14c6:	19 f0       	breq	.+6      	; 0x14ce <__divsf3+0x18>
    14c8:	eb cd       	rjmp	.-1066   	; 0x10a0 <__fp_inf>
    14ca:	51 11       	cpse	r21, r1
    14cc:	34 ce       	rjmp	.-920    	; 0x1136 <__fp_szero>
    14ce:	ee cd       	rjmp	.-1060   	; 0x10ac <__fp_nan>

000014d0 <__divsf3x>:
    14d0:	0f de       	rcall	.-994    	; 0x10f0 <__fp_split3>
    14d2:	98 f3       	brcs	.-26     	; 0x14ba <__divsf3+0x4>

000014d4 <__divsf3_pse>:
    14d4:	99 23       	and	r25, r25
    14d6:	c9 f3       	breq	.-14     	; 0x14ca <__divsf3+0x14>
    14d8:	55 23       	and	r21, r21
    14da:	b1 f3       	breq	.-20     	; 0x14c8 <__divsf3+0x12>
    14dc:	95 1b       	sub	r25, r21
    14de:	55 0b       	sbc	r21, r21
    14e0:	bb 27       	eor	r27, r27
    14e2:	aa 27       	eor	r26, r26
    14e4:	62 17       	cp	r22, r18
    14e6:	73 07       	cpc	r23, r19
    14e8:	84 07       	cpc	r24, r20
    14ea:	38 f0       	brcs	.+14     	; 0x14fa <__divsf3_pse+0x26>
    14ec:	9f 5f       	subi	r25, 0xFF	; 255
    14ee:	5f 4f       	sbci	r21, 0xFF	; 255
    14f0:	22 0f       	add	r18, r18
    14f2:	33 1f       	adc	r19, r19
    14f4:	44 1f       	adc	r20, r20
    14f6:	aa 1f       	adc	r26, r26
    14f8:	a9 f3       	breq	.-22     	; 0x14e4 <__divsf3_pse+0x10>
    14fa:	33 d0       	rcall	.+102    	; 0x1562 <__divsf3_pse+0x8e>
    14fc:	0e 2e       	mov	r0, r30
    14fe:	3a f0       	brmi	.+14     	; 0x150e <__divsf3_pse+0x3a>
    1500:	e0 e8       	ldi	r30, 0x80	; 128
    1502:	30 d0       	rcall	.+96     	; 0x1564 <__divsf3_pse+0x90>
    1504:	91 50       	subi	r25, 0x01	; 1
    1506:	50 40       	sbci	r21, 0x00	; 0
    1508:	e6 95       	lsr	r30
    150a:	00 1c       	adc	r0, r0
    150c:	ca f7       	brpl	.-14     	; 0x1500 <__divsf3_pse+0x2c>
    150e:	29 d0       	rcall	.+82     	; 0x1562 <__divsf3_pse+0x8e>
    1510:	fe 2f       	mov	r31, r30
    1512:	27 d0       	rcall	.+78     	; 0x1562 <__divsf3_pse+0x8e>
    1514:	66 0f       	add	r22, r22
    1516:	77 1f       	adc	r23, r23
    1518:	88 1f       	adc	r24, r24
    151a:	bb 1f       	adc	r27, r27
    151c:	26 17       	cp	r18, r22
    151e:	37 07       	cpc	r19, r23
    1520:	48 07       	cpc	r20, r24
    1522:	ab 07       	cpc	r26, r27
    1524:	b0 e8       	ldi	r27, 0x80	; 128
    1526:	09 f0       	breq	.+2      	; 0x152a <__divsf3_pse+0x56>
    1528:	bb 0b       	sbc	r27, r27
    152a:	80 2d       	mov	r24, r0
    152c:	bf 01       	movw	r22, r30
    152e:	ff 27       	eor	r31, r31
    1530:	93 58       	subi	r25, 0x83	; 131
    1532:	5f 4f       	sbci	r21, 0xFF	; 255
    1534:	2a f0       	brmi	.+10     	; 0x1540 <__divsf3_pse+0x6c>
    1536:	9e 3f       	cpi	r25, 0xFE	; 254
    1538:	51 05       	cpc	r21, r1
    153a:	68 f0       	brcs	.+26     	; 0x1556 <__divsf3_pse+0x82>
    153c:	b1 cd       	rjmp	.-1182   	; 0x10a0 <__fp_inf>
    153e:	fb cd       	rjmp	.-1034   	; 0x1136 <__fp_szero>
    1540:	5f 3f       	cpi	r21, 0xFF	; 255
    1542:	ec f3       	brlt	.-6      	; 0x153e <__divsf3_pse+0x6a>
    1544:	98 3e       	cpi	r25, 0xE8	; 232
    1546:	dc f3       	brlt	.-10     	; 0x153e <__divsf3_pse+0x6a>
    1548:	86 95       	lsr	r24
    154a:	77 95       	ror	r23
    154c:	67 95       	ror	r22
    154e:	b7 95       	ror	r27
    1550:	f7 95       	ror	r31
    1552:	9f 5f       	subi	r25, 0xFF	; 255
    1554:	c9 f7       	brne	.-14     	; 0x1548 <__divsf3_pse+0x74>
    1556:	88 0f       	add	r24, r24
    1558:	91 1d       	adc	r25, r1
    155a:	96 95       	lsr	r25
    155c:	87 95       	ror	r24
    155e:	97 f9       	bld	r25, 7
    1560:	08 95       	ret
    1562:	e1 e0       	ldi	r30, 0x01	; 1
    1564:	66 0f       	add	r22, r22
    1566:	77 1f       	adc	r23, r23
    1568:	88 1f       	adc	r24, r24
    156a:	bb 1f       	adc	r27, r27
    156c:	62 17       	cp	r22, r18
    156e:	73 07       	cpc	r23, r19
    1570:	84 07       	cpc	r24, r20
    1572:	ba 07       	cpc	r27, r26
    1574:	20 f0       	brcs	.+8      	; 0x157e <__divsf3_pse+0xaa>
    1576:	62 1b       	sub	r22, r18
    1578:	73 0b       	sbc	r23, r19
    157a:	84 0b       	sbc	r24, r20
    157c:	ba 0b       	sbc	r27, r26
    157e:	ee 1f       	adc	r30, r30
    1580:	88 f7       	brcc	.-30     	; 0x1564 <__divsf3_pse+0x90>
    1582:	e0 95       	com	r30
    1584:	08 95       	ret

00001586 <__fp_mpack>:
    1586:	9f 3f       	cpi	r25, 0xFF	; 255
    1588:	31 f0       	breq	.+12     	; 0x1596 <__fp_mpack_finite+0xc>

0000158a <__fp_mpack_finite>:
    158a:	91 50       	subi	r25, 0x01	; 1
    158c:	20 f4       	brcc	.+8      	; 0x1596 <__fp_mpack_finite+0xc>
    158e:	87 95       	ror	r24
    1590:	77 95       	ror	r23
    1592:	67 95       	ror	r22
    1594:	b7 95       	ror	r27
    1596:	88 0f       	add	r24, r24
    1598:	91 1d       	adc	r25, r1
    159a:	96 95       	lsr	r25
    159c:	87 95       	ror	r24
    159e:	97 f9       	bld	r25, 7
    15a0:	08 95       	ret

000015a2 <__divmodhi4>:
    15a2:	97 fb       	bst	r25, 7
    15a4:	07 2e       	mov	r0, r23
    15a6:	16 f4       	brtc	.+4      	; 0x15ac <__divmodhi4+0xa>
    15a8:	00 94       	com	r0
    15aa:	06 d0       	rcall	.+12     	; 0x15b8 <__divmodhi4_neg1>
    15ac:	77 fd       	sbrc	r23, 7
    15ae:	08 d0       	rcall	.+16     	; 0x15c0 <__divmodhi4_neg2>
    15b0:	14 d0       	rcall	.+40     	; 0x15da <__udivmodhi4>
    15b2:	07 fc       	sbrc	r0, 7
    15b4:	05 d0       	rcall	.+10     	; 0x15c0 <__divmodhi4_neg2>
    15b6:	3e f4       	brtc	.+14     	; 0x15c6 <__divmodhi4_exit>

000015b8 <__divmodhi4_neg1>:
    15b8:	90 95       	com	r25
    15ba:	81 95       	neg	r24
    15bc:	9f 4f       	sbci	r25, 0xFF	; 255
    15be:	08 95       	ret

000015c0 <__divmodhi4_neg2>:
    15c0:	70 95       	com	r23
    15c2:	61 95       	neg	r22
    15c4:	7f 4f       	sbci	r23, 0xFF	; 255

000015c6 <__divmodhi4_exit>:
    15c6:	08 95       	ret

000015c8 <__tablejump2__>:
    15c8:	ee 0f       	add	r30, r30
    15ca:	ff 1f       	adc	r31, r31
    15cc:	00 24       	eor	r0, r0
    15ce:	00 1c       	adc	r0, r0
    15d0:	0b be       	out	0x3b, r0	; 59
    15d2:	07 90       	elpm	r0, Z+
    15d4:	f6 91       	elpm	r31, Z
    15d6:	e0 2d       	mov	r30, r0
    15d8:	09 94       	ijmp

000015da <__udivmodhi4>:
    15da:	aa 1b       	sub	r26, r26
    15dc:	bb 1b       	sub	r27, r27
    15de:	51 e1       	ldi	r21, 0x11	; 17
    15e0:	07 c0       	rjmp	.+14     	; 0x15f0 <__udivmodhi4_ep>

000015e2 <__udivmodhi4_loop>:
    15e2:	aa 1f       	adc	r26, r26
    15e4:	bb 1f       	adc	r27, r27
    15e6:	a6 17       	cp	r26, r22
    15e8:	b7 07       	cpc	r27, r23
    15ea:	10 f0       	brcs	.+4      	; 0x15f0 <__udivmodhi4_ep>
    15ec:	a6 1b       	sub	r26, r22
    15ee:	b7 0b       	sbc	r27, r23

000015f0 <__udivmodhi4_ep>:
    15f0:	88 1f       	adc	r24, r24
    15f2:	99 1f       	adc	r25, r25
    15f4:	5a 95       	dec	r21
    15f6:	a9 f7       	brne	.-22     	; 0x15e2 <__udivmodhi4_loop>
    15f8:	80 95       	com	r24
    15fa:	90 95       	com	r25
    15fc:	bc 01       	movw	r22, r24
    15fe:	cd 01       	movw	r24, r26
    1600:	08 95       	ret

00001602 <eeprom_read_byte>:
    1602:	e1 99       	sbic	0x1c, 1	; 28
    1604:	fe cf       	rjmp	.-4      	; 0x1602 <eeprom_read_byte>
    1606:	9f bb       	out	0x1f, r25	; 31
    1608:	8e bb       	out	0x1e, r24	; 30
    160a:	e0 9a       	sbi	0x1c, 0	; 28
    160c:	99 27       	eor	r25, r25
    160e:	8d b3       	in	r24, 0x1d	; 29
    1610:	08 95       	ret

00001612 <eeprom_read_dword>:
    1612:	a6 e1       	ldi	r26, 0x16	; 22
    1614:	b0 e0       	ldi	r27, 0x00	; 0
    1616:	44 e0       	ldi	r20, 0x04	; 4
    1618:	50 e0       	ldi	r21, 0x00	; 0
    161a:	02 c0       	rjmp	.+4      	; 0x1620 <eeprom_read_blraw>

0000161c <eeprom_read_block>:
    161c:	dc 01       	movw	r26, r24
    161e:	cb 01       	movw	r24, r22

00001620 <eeprom_read_blraw>:
    1620:	fc 01       	movw	r30, r24
    1622:	e1 99       	sbic	0x1c, 1	; 28
    1624:	fe cf       	rjmp	.-4      	; 0x1622 <eeprom_read_blraw+0x2>
    1626:	06 c0       	rjmp	.+12     	; 0x1634 <eeprom_read_blraw+0x14>
    1628:	ff bb       	out	0x1f, r31	; 31
    162a:	ee bb       	out	0x1e, r30	; 30
    162c:	e0 9a       	sbi	0x1c, 0	; 28
    162e:	31 96       	adiw	r30, 0x01	; 1
    1630:	0d b2       	in	r0, 0x1d	; 29
    1632:	0d 92       	st	X+, r0
    1634:	41 50       	subi	r20, 0x01	; 1
    1636:	50 40       	sbci	r21, 0x00	; 0
    1638:	b8 f7       	brcc	.-18     	; 0x1628 <eeprom_read_blraw+0x8>
    163a:	08 95       	ret

0000163c <_exit>:
    163c:	f8 94       	cli

0000163e <__stop_program>:
    163e:	ff cf       	rjmp	.-2      	; 0x163e <__stop_program>
